Certificate:
    Data:
        Version: 1 (0x0)
        Serial Number: 36 (0x24)
    Signature Algorithm: sha256WithRSAEncryption
        Issuer: C=fr, ST=idf, L=paris, O=vitamui, OU=authorities, CN=ca_intermediate_server
        Validity
            Not Before: May 17 12:24:18 2021 GMT
            Not After : May 16 12:24:18 2024 GMT
        Subject: C=fr, ST=idf, L=paris, O=vitamui, CN=sandbox23-adm.cines.fr
        Subject Public Key Info:
            Public Key Algorithm: rsaEncryption
                Public-Key: (4096 bit)
                Modulus:
                    00:d0:fe:66:75:06:e8:67:ac:75:a5:4d:44:71:ad:
                    be:50:db:96:ae:bd:25:0e:65:71:df:bc:23:58:df:
                    13:24:f8:50:76:fc:7a:16:da:74:59:6a:ec:00:3b:
                    0f:d2:a9:fa:05:53:a3:3e:a2:45:46:2c:e1:27:24:
                    32:3a:ff:23:25:5f:83:d0:62:12:72:2a:92:02:84:
                    5b:8d:ad:f6:f5:a9:19:1c:f9:78:cc:69:cc:6c:c7:
                    72:61:81:5e:bf:2a:28:c9:1e:0e:74:63:c7:12:e0:
                    68:23:e1:d7:73:04:a0:da:a8:1e:31:d2:92:c8:c3:
                    6f:5c:ee:49:84:af:06:2e:1d:2a:c2:12:a3:9b:71:
                    a2:4d:80:1e:f0:bf:25:77:f8:88:dc:4c:10:11:a5:
                    aa:bd:2a:c5:6d:99:4e:a8:e3:d0:ab:69:17:50:2c:
                    cb:70:23:79:13:d9:3c:25:13:eb:24:f6:10:a1:6a:
                    71:15:07:91:66:5d:9f:a0:da:44:7f:25:8b:b1:5c:
                    c8:67:15:19:f6:55:27:ba:a0:af:27:ec:d4:c4:47:
                    4b:3a:ac:79:29:23:06:de:98:a6:3b:ef:a5:2c:10:
                    c8:65:4f:b7:7e:6a:3a:bc:fe:06:30:e8:e8:54:0d:
                    00:b2:80:99:7b:f5:47:7c:c1:9a:64:1c:e5:fb:44:
                    25:4a:fd:12:f0:08:48:1b:32:3e:71:35:72:0c:49:
                    fc:04:49:fd:2d:d9:c7:db:1a:b4:75:ba:3b:0a:2d:
                    47:99:55:5d:cd:7b:1b:df:47:d6:70:86:10:04:4e:
                    78:74:69:42:3e:92:e6:1b:04:b7:a5:11:7d:3f:de:
                    45:3c:09:46:8a:14:a0:0c:b1:94:ad:a5:9b:c1:92:
                    80:50:fc:b4:7b:80:e7:fd:8a:0e:4d:41:5b:1c:f1:
                    7c:27:63:88:ad:7c:d7:78:da:d8:98:ee:ed:5c:41:
                    61:02:20:9d:b1:20:f1:da:f7:f3:95:17:66:03:3f:
                    7d:03:5c:38:b6:73:5e:ee:f3:8d:b1:d8:94:d8:4f:
                    09:45:5f:3d:36:f8:2e:26:0c:32:30:09:b6:62:1d:
                    be:f5:59:77:f1:40:81:da:8d:c9:3c:95:40:d3:5e:
                    00:31:0d:56:f5:a3:8b:19:45:a9:7c:dc:c3:22:8b:
                    29:54:cf:ff:cc:15:a6:3b:ae:8e:29:75:7f:18:67:
                    23:cb:c9:d6:f3:53:d5:9d:27:db:4d:d0:f0:07:a9:
                    4a:63:10:6b:d1:1d:b8:ed:9e:37:fd:82:78:81:44:
                    d4:80:ef:8d:22:52:9f:6b:48:c0:a6:19:b6:91:3e:
                    dc:21:11:f0:86:77:75:ac:8e:9f:94:39:13:5f:5a:
                    96:cf:dd
                Exponent: 65537 (0x10001)
    Signature Algorithm: sha256WithRSAEncryption
         12:ae:15:28:54:11:a6:33:5d:32:de:39:66:bf:0e:7d:6a:23:
         58:e2:ba:68:af:12:9e:33:ae:be:f1:28:b6:4b:09:a2:30:6c:
         7b:02:a8:b5:15:d7:fe:d9:56:ec:5f:ac:70:f4:0a:8a:af:9a:
         eb:dd:e0:e7:c9:54:ff:d1:88:5e:0b:db:4c:f9:cf:13:f2:04:
         38:72:f2:e7:a1:c7:d2:77:c7:f9:e0:c2:66:12:b5:4a:c7:da:
         8d:7a:6a:62:c1:51:19:51:59:5f:5c:16:2e:47:c8:07:ae:70:
         a5:26:c1:2d:49:0d:d6:40:84:44:92:f6:a8:df:9e:71:37:38:
         fa:10:74:90:5b:96:c6:55:37:60:39:4e:33:5a:46:a1:ea:10:
         8c:ea:f0:31:05:26:b1:2d:91:fb:5f:73:13:1b:72:fb:b7:8b:
         0c:05:91:94:46:0d:80:c3:8e:51:c6:ed:bd:6b:c5:d7:9f:aa:
         bf:ca:ce:b0:52:22:99:95:fa:b7:5d:07:d9:d6:7f:bd:89:a3:
         39:4c:b9:4b:76:66:17:1b:3d:1f:44:d5:d5:68:ac:0f:e2:96:
         89:0a:94:b9:52:96:dd:4c:1e:15:f4:af:87:76:88:29:ba:67:
         b1:fa:73:5e:31:7e:a5:58:58:e2:e6:28:b5:6a:d0:15:93:92:
         2c:ec:7d:59:72:e7:20:97:f0:1e:49:96:e8:43:ee:d8:cc:da:
         69:59:9d:29:08:95:f2:58:47:10:45:ca:5b:a8:e5:28:15:6a:
         28:f3:35:10:a9:3d:01:c0:ac:87:64:23:6d:3d:4c:06:48:f6:
         2f:4a:fe:64:32:0e:0f:a0:ee:f7:df:ff:5f:86:fb:e9:6d:57:
         c1:80:43:20:f5:ce:93:3e:d9:5f:9b:f6:af:9c:80:c0:e1:e2:
         b8:24:58:b4:ab:f0:ec:8c:92:87:67:e4:98:82:95:51:73:93:
         9b:83:a0:62:92:ef:38:e4:e8:46:57:c1:df:c3:c9:20:33:6c:
         36:cc:64:c0:14:b2:31:a6:62:5b:b2:cd:05:fa:dc:27:67:6f:
         e0:44:45:df:84:df:15:8a:b8:e1:2a:ee:2e:6f:e0:8f:21:9c:
         ee:89:81:2d:e0:18:ed:1e:33:b0:25:bf:95:62:68:ba:d5:d8:
         b4:6d:f7:0a:52:fc:b8:d3:6c:2e:8b:90:43:89:fc:e4:42:3f:
         10:6a:19:a5:1c:70:75:45:c2:e0:a7:67:ab:2d:b7:64:a0:b9:
         10:fb:2a:f5:90:d0:eb:a9:e7:4f:5e:79:96:33:f8:a8:84:45:
         4f:f0:5a:08:42:30:87:89:7f:cc:dd:cf:93:80:4d:e4:91:28:
         59:f8:77:c7:9e:2c:d4:07
-----BEGIN CERTIFICATE-----
MIIFRjCCAy4CASQwDQYJKoZIhvcNAQELBQAwdDELMAkGA1UEBhMCZnIxDDAKBgNV
BAgMA2lkZjEOMAwGA1UEBwwFcGFyaXMxEDAOBgNVBAoMB3ZpdGFtdWkxFDASBgNV
BAsMC2F1dGhvcml0aWVzMR8wHQYDVQQDDBZjYV9pbnRlcm1lZGlhdGVfc2VydmVy
MB4XDTIxMDUxNzEyMjQxOFoXDTI0MDUxNjEyMjQxOFowXjELMAkGA1UEBhMCZnIx
DDAKBgNVBAgMA2lkZjEOMAwGA1UEBwwFcGFyaXMxEDAOBgNVBAoMB3ZpdGFtdWkx
HzAdBgNVBAMMFnNhbmRib3gyMy1hZG0uY2luZXMuZnIwggIiMA0GCSqGSIb3DQEB
AQUAA4ICDwAwggIKAoICAQDQ/mZ1BuhnrHWlTURxrb5Q25auvSUOZXHfvCNY3xMk
+FB2/HoW2nRZauwAOw/SqfoFU6M+okVGLOEnJDI6/yMlX4PQYhJyKpIChFuNrfb1
qRkc+XjMacxsx3JhgV6/KijJHg50Y8cS4Ggj4ddzBKDaqB4x0pLIw29c7kmErwYu
HSrCEqObcaJNgB7wvyV3+IjcTBARpaq9KsVtmU6o49CraRdQLMtwI3kT2TwlE+sk
9hChanEVB5FmXZ+g2kR/JYuxXMhnFRn2VSe6oK8n7NTER0s6rHkpIwbemKY776Us
EMhlT7d+ajq8/gYw6OhUDQCygJl79Ud8wZpkHOX7RCVK/RLwCEgbMj5xNXIMSfwE
Sf0t2cfbGrR1ujsKLUeZVV3NexvfR9ZwhhAETnh0aUI+kuYbBLelEX0/3kU8CUaK
FKAMsZStpZvBkoBQ/LR7gOf9ig5NQVsc8XwnY4itfNd42tiY7u1cQWECIJ2xIPHa
9/OVF2YDP30DXDi2c17u842x2JTYTwlFXz02+C4mDDIwCbZiHb71WXfxQIHajck8
lUDTXgAxDVb1o4sZRal83MMiiylUz//MFaY7ro4pdX8YZyPLydbzU9WdJ9tN0PAH
qUpjEGvRHbjtnjf9gniBRNSA740iUp9rSMCmGbaRPtwhEfCGd3Wsjp+UORNfWpbP
3QIDAQABMA0GCSqGSIb3DQEBCwUAA4ICAQASrhUoVBGmM10y3jlmvw59aiNY4rpo
rxKeM66+8Si2SwmiMGx7Aqi1Fdf+2VbsX6xw9AqKr5rr3eDnyVT/0YheC9tM+c8T
8gQ4cvLnocfSd8f54MJmErVKx9qNempiwVEZUVlfXBYuR8gHrnClJsEtSQ3WQIRE
kvao355xNzj6EHSQW5bGVTdgOU4zWkah6hCM6vAxBSaxLZH7X3MTG3L7t4sMBZGU
Rg2Aw45Rxu29a8XXn6q/ys6wUiKZlfq3XQfZ1n+9iaM5TLlLdmYXGz0fRNXVaKwP
4paJCpS5UpbdTB4V9K+Hdogpumex+nNeMX6lWFji5ii1atAVk5Is7H1Zcucgl/Ae
SZboQ+7YzNppWZ0pCJXyWEcQRcpbqOUoFWoo8zUQqT0BwKyHZCNtPUwGSPYvSv5k
Mg4PoO733/9fhvvpbVfBgEMg9c6TPtlfm/avnIDA4eK4JFi0q/DsjJKHZ+SYgpVR
c5Obg6Biku845OhGV8Hfw8kgM2w2zGTAFLIxpmJbss0F+twnZ2/gREXfhN8Virjh
Ku4ub+CPIZzuiYEt4BjtHjOwJb+VYmi61di0bfcKUvy402wui5BDifzkQj8Qahml
HHB1RcLgp2erLbdkoLkQ+yr1kNDrqedPXnmWM/iohEVP8FoIQjCHiX/M3c+TgE3k
kShZ+HfHnizUBw==
-----END CERTIFICATE-----
