Certificate:
    Data:
        Version: 1 (0x0)
        Serial Number: 41 (0x29)
    Signature Algorithm: sha256WithRSAEncryption
        Issuer: C=fr, ST=idf, L=paris, O=vitamui, OU=authorities, CN=ca_intermediate_server
        Validity
            Not Before: May 17 12:24:56 2021 GMT
            Not After : May 16 12:24:56 2024 GMT
        Subject: C=fr, ST=idf, L=paris, O=vitamui, CN=sandbox23-adm.cines.fr
        Subject Public Key Info:
            Public Key Algorithm: rsaEncryption
                Public-Key: (4096 bit)
                Modulus:
                    00:ac:8a:03:fd:0a:bd:48:44:de:f4:19:3c:61:20:
                    c9:86:ee:16:10:8f:12:fe:70:2d:61:e7:95:55:2f:
                    ef:ae:dd:c1:28:c3:39:aa:d0:b0:03:cc:6a:57:be:
                    f1:cd:50:c9:cf:57:d0:42:cb:f8:34:bc:8e:aa:40:
                    a4:c2:ae:27:15:4d:72:83:c1:b6:fc:ea:ec:16:59:
                    4c:1d:a5:0e:ae:35:ab:ce:62:cc:ba:76:81:4a:ff:
                    54:da:a5:b5:9e:86:c4:9a:86:d5:de:73:07:d9:c4:
                    8a:af:34:61:6a:35:17:eb:4d:b8:7e:86:1b:10:7c:
                    17:1c:cd:50:1b:ce:eb:c0:78:0e:84:4e:46:35:bc:
                    35:02:71:86:e6:65:73:95:3a:4b:d3:61:0e:ce:dd:
                    35:76:34:5b:16:a6:f0:77:99:75:fc:0b:be:69:fd:
                    89:fc:54:a2:b6:70:6e:ec:0d:0a:e9:2a:52:4e:bc:
                    75:32:3a:ba:76:6b:54:2e:9f:2f:a2:eb:07:52:69:
                    17:e2:27:7a:d7:81:d8:fa:1b:fd:22:b0:87:1b:37:
                    49:f2:27:51:b4:f2:7b:52:fc:02:63:16:88:26:79:
                    40:05:0b:77:27:4e:f7:6c:e5:51:3b:31:a8:e3:b0:
                    70:4f:31:90:b8:c3:82:16:5c:2f:ce:da:c2:4c:cd:
                    c2:ec:ae:84:3e:f2:9d:e7:9c:96:ea:3e:7e:57:86:
                    42:30:16:12:f7:8d:60:e3:2e:61:22:8c:bc:57:19:
                    b9:4c:6e:1f:9b:1e:c9:be:69:20:9e:d8:43:71:d2:
                    ea:39:e9:3c:d0:d4:b3:1b:4e:4a:43:22:70:55:32:
                    75:35:00:73:00:bc:df:e4:8e:10:bb:b3:62:93:ab:
                    34:31:41:52:f3:5c:a6:b4:1c:38:c0:ec:e7:31:f7:
                    78:3e:c3:53:ce:d1:58:32:e8:2f:e4:79:16:38:b3:
                    65:69:7f:f5:40:c9:9c:2d:98:34:d5:69:1c:44:94:
                    49:01:5a:ed:4c:52:22:98:2b:16:ea:ff:a6:4a:ff:
                    eb:4f:b6:7e:7d:68:05:06:78:ee:03:6e:68:1c:85:
                    00:f5:8a:4d:d1:77:43:1b:ab:a2:cd:13:df:f4:a1:
                    f7:a4:2d:e9:3d:93:96:7d:89:8c:40:d4:b8:08:a7:
                    61:b2:b7:7c:d3:a6:c9:bb:64:f0:fa:91:80:ee:6b:
                    03:12:0d:0b:4a:54:b2:fc:16:29:36:ae:a0:4d:ac:
                    d8:04:e7:7a:f1:43:4b:f3:06:6b:23:24:df:69:44:
                    49:a3:10:b4:ea:3e:b6:12:61:3f:bf:da:29:f4:f8:
                    c2:cb:3d:0a:4d:18:a0:2d:29:af:48:f7:6f:f3:13:
                    77:5e:db
                Exponent: 65537 (0x10001)
    Signature Algorithm: sha256WithRSAEncryption
         36:46:15:10:f9:7d:10:31:0a:c1:8a:df:3d:cd:48:0d:f7:27:
         ea:38:19:27:34:df:fd:46:52:01:c8:7d:30:cc:b5:85:4f:a8:
         b8:6d:b9:ac:73:51:e5:2f:56:11:74:eb:6b:03:23:6b:96:4c:
         70:05:f3:40:77:69:1f:e9:3f:b8:fd:4e:45:76:f0:c4:9c:ab:
         78:81:8f:b5:a4:b8:f3:b9:62:b7:8e:08:ec:2d:2c:40:07:0c:
         dd:81:14:e1:28:66:04:a0:f0:28:da:2d:7b:68:51:74:9d:99:
         c3:8c:eb:d7:70:2d:9a:8b:a0:7d:3c:2e:46:2e:26:fb:c5:a4:
         11:1f:ac:3b:f4:a3:5c:8f:d0:28:f5:13:1f:d5:ea:53:2b:a3:
         c4:80:9a:3e:89:e1:a9:28:3f:6a:c6:0d:d4:88:08:2e:5d:19:
         01:e2:74:4e:5e:d0:c6:f2:9b:b7:78:1c:6d:ca:f3:e7:29:4a:
         76:32:9c:5e:17:b3:28:0d:4d:ac:f2:52:5c:22:10:de:c3:b6:
         7c:f8:86:14:9a:ce:6c:27:ed:67:8e:e7:0a:63:ba:c9:b2:27:
         42:40:a0:3f:1f:56:d9:20:83:61:92:fb:81:86:84:69:31:41:
         9e:f7:fe:b3:e2:3e:4c:1a:43:fe:b4:60:16:ca:60:4a:6c:ca:
         cf:f0:e2:9d:51:f9:45:bf:36:f5:90:a6:3b:32:1b:bb:a2:31:
         8d:28:ed:8c:f4:e0:2b:61:d2:ae:20:6b:8f:94:ba:5e:8f:79:
         2e:38:4c:3a:e2:50:69:f6:79:60:d6:45:a3:96:e9:28:63:dc:
         21:44:cd:aa:2e:21:99:64:fa:eb:13:a7:43:49:a1:d6:cb:47:
         b2:01:15:fb:1e:a0:f6:f9:44:57:ca:71:7b:1d:85:7b:85:76:
         bf:0d:61:d3:bb:6a:55:ff:00:b1:c9:a8:0e:2b:0d:14:17:cd:
         54:a8:ed:61:70:e9:81:7d:d0:65:49:0b:ad:ad:1d:d5:22:c3:
         1b:f1:0e:dc:51:e4:c9:a4:45:dc:c0:b4:8f:a1:46:51:a6:b8:
         e6:b2:25:23:f6:a5:34:3f:a0:0f:5f:19:06:15:29:74:f0:d8:
         9d:85:d1:e3:cd:6d:dd:b3:62:19:ab:73:c7:47:1b:98:78:71:
         4c:e0:79:d5:00:b6:c6:1c:dd:03:b5:99:b3:bc:41:e7:5f:a3:
         73:11:14:72:7a:7c:0a:d7:6d:4e:88:84:fa:3c:7d:06:84:cc:
         2d:76:68:9a:0e:54:b4:a6:ec:ef:89:a3:e9:b4:09:c7:18:93:
         56:ff:1a:be:86:e8:46:9b:72:b8:18:a1:9f:65:24:1d:c9:b3:
         b2:a2:a4:d7:3d:21:df:00
-----BEGIN CERTIFICATE-----
MIIFRjCCAy4CASkwDQYJKoZIhvcNAQELBQAwdDELMAkGA1UEBhMCZnIxDDAKBgNV
BAgMA2lkZjEOMAwGA1UEBwwFcGFyaXMxEDAOBgNVBAoMB3ZpdGFtdWkxFDASBgNV
BAsMC2F1dGhvcml0aWVzMR8wHQYDVQQDDBZjYV9pbnRlcm1lZGlhdGVfc2VydmVy
MB4XDTIxMDUxNzEyMjQ1NloXDTI0MDUxNjEyMjQ1NlowXjELMAkGA1UEBhMCZnIx
DDAKBgNVBAgMA2lkZjEOMAwGA1UEBwwFcGFyaXMxEDAOBgNVBAoMB3ZpdGFtdWkx
HzAdBgNVBAMMFnNhbmRib3gyMy1hZG0uY2luZXMuZnIwggIiMA0GCSqGSIb3DQEB
AQUAA4ICDwAwggIKAoICAQCsigP9Cr1IRN70GTxhIMmG7hYQjxL+cC1h55VVL++u
3cEowzmq0LADzGpXvvHNUMnPV9BCy/g0vI6qQKTCricVTXKDwbb86uwWWUwdpQ6u
NavOYsy6doFK/1TapbWehsSahtXecwfZxIqvNGFqNRfrTbh+hhsQfBcczVAbzuvA
eA6ETkY1vDUCcYbmZXOVOkvTYQ7O3TV2NFsWpvB3mXX8C75p/Yn8VKK2cG7sDQrp
KlJOvHUyOrp2a1Quny+i6wdSaRfiJ3rXgdj6G/0isIcbN0nyJ1G08ntS/AJjFogm
eUAFC3cnTvds5VE7MajjsHBPMZC4w4IWXC/O2sJMzcLsroQ+8p3nnJbqPn5XhkIw
FhL3jWDjLmEijLxXGblMbh+bHsm+aSCe2ENx0uo56TzQ1LMbTkpDInBVMnU1AHMA
vN/kjhC7s2KTqzQxQVLzXKa0HDjA7Ocx93g+w1PO0Vgy6C/keRY4s2Vpf/VAyZwt
mDTVaRxElEkBWu1MUiKYKxbq/6ZK/+tPtn59aAUGeO4DbmgchQD1ik3Rd0Mbq6LN
E9/0ofekLek9k5Z9iYxA1LgIp2Gyt3zTpsm7ZPD6kYDuawMSDQtKVLL8Fik2rqBN
rNgE53rxQ0vzBmsjJN9pREmjELTqPrYSYT+/2in0+MLLPQpNGKAtKa9I92/zE3de
2wIDAQABMA0GCSqGSIb3DQEBCwUAA4ICAQA2RhUQ+X0QMQrBit89zUgN9yfqOBkn
NN/9RlIByH0wzLWFT6i4bbmsc1HlL1YRdOtrAyNrlkxwBfNAd2kf6T+4/U5FdvDE
nKt4gY+1pLjzuWK3jgjsLSxABwzdgRThKGYEoPAo2i17aFF0nZnDjOvXcC2ai6B9
PC5GLib7xaQRH6w79KNcj9Ao9RMf1epTK6PEgJo+ieGpKD9qxg3UiAguXRkB4nRO
XtDG8pu3eBxtyvPnKUp2MpxeF7MoDU2s8lJcIhDew7Z8+IYUms5sJ+1njucKY7rJ
sidCQKA/H1bZIINhkvuBhoRpMUGe9/6z4j5MGkP+tGAWymBKbMrP8OKdUflFvzb1
kKY7Mhu7ojGNKO2M9OArYdKuIGuPlLpej3kuOEw64lBp9nlg1kWjlukoY9whRM2q
LiGZZPrrE6dDSaHWy0eyARX7HqD2+URXynF7HYV7hXa/DWHTu2pV/wCxyagOKw0U
F81UqO1hcOmBfdBlSQutrR3VIsMb8Q7cUeTJpEXcwLSPoUZRprjmsiUj9qU0P6AP
XxkGFSl08NidhdHjzW3ds2IZq3PHRxuYeHFM4HnVALbGHN0DtZmzvEHnX6NzERRy
enwK121OiIT6PH0GhMwtdmiaDlS0puzviaPptAnHGJNW/xq+huhGm3K4GKGfZSQd
ybOyoqTXPSHfAA==
-----END CERTIFICATE-----
