Certificate:
    Data:
        Version: 1 (0x0)
        Serial Number: 38 (0x26)
    Signature Algorithm: sha256WithRSAEncryption
        Issuer: C=fr, ST=idf, L=paris, O=vitamui, OU=authorities, CN=ca_intermediate_server
        Validity
            Not Before: May 17 12:24:31 2021 GMT
            Not After : May 16 12:24:31 2024 GMT
        Subject: C=fr, ST=idf, L=paris, O=vitamui, CN=sandbox23-adm.cines.fr
        Subject Public Key Info:
            Public Key Algorithm: rsaEncryption
                Public-Key: (4096 bit)
                Modulus:
                    00:d1:f1:e1:c7:d3:ce:0b:38:6c:d2:33:38:ed:0d:
                    8a:8c:f8:f0:24:b3:85:2b:1a:a6:fa:ae:ec:0c:f3:
                    e9:f1:50:01:52:ed:57:01:6b:91:d4:3f:c8:97:26:
                    d7:8d:b5:e3:d4:c6:1e:fb:bc:78:e6:8f:c5:32:a4:
                    27:51:03:8c:76:88:b2:44:ad:d5:08:cd:79:9c:9b:
                    42:ee:f2:04:03:63:ca:2c:2e:be:fb:af:4e:cd:f4:
                    61:ce:e4:ad:51:0c:9b:e9:aa:3f:82:23:8e:af:a5:
                    41:3d:6a:25:9e:f3:35:8d:88:9a:09:8c:2f:fc:06:
                    92:01:f8:83:1a:9d:99:59:2d:09:65:17:7a:82:fc:
                    e3:38:26:fc:cd:62:65:33:8c:51:43:c5:d6:9b:68:
                    ab:e3:8c:36:4a:24:d2:be:ec:d4:0a:d8:f5:f6:c8:
                    d5:33:fe:fb:76:72:58:67:de:f8:7d:7f:82:ed:a5:
                    a8:f6:7e:b8:7b:dc:23:f2:33:a4:65:00:40:8e:15:
                    c7:5e:0d:0a:66:7d:4f:30:79:41:ff:ca:17:53:98:
                    ce:65:99:c0:5b:53:c7:1d:75:a8:ff:9a:fe:33:d3:
                    c8:94:9e:be:9e:ab:81:77:b1:0d:b6:0d:c3:b7:ba:
                    7c:fb:4c:a5:b5:13:9e:67:28:0e:9b:45:7e:bf:ad:
                    49:aa:52:33:d7:50:91:80:52:f7:45:39:c3:2f:4b:
                    6d:78:42:3c:e3:3d:31:55:f3:6f:6a:90:86:a9:94:
                    22:dc:5b:d6:00:49:73:12:e7:6b:39:6e:a9:5f:ed:
                    ac:92:2f:72:91:6f:9e:27:2e:80:fb:30:4d:dd:d3:
                    7d:08:35:3a:b3:52:ee:29:53:ac:c6:f9:c8:30:9a:
                    23:23:a3:ba:fa:3c:52:3c:29:09:fb:46:b9:32:10:
                    2d:42:bc:f7:5b:2c:c5:26:60:cf:c7:a8:d3:98:69:
                    b1:4d:b1:84:41:c4:5c:a2:82:6f:6b:f7:4c:95:90:
                    a1:e7:48:5d:16:ce:70:43:68:22:17:81:84:ba:8c:
                    1a:09:c4:13:2f:fc:5a:92:a7:4f:57:d0:1b:13:31:
                    e7:97:2e:51:e7:eb:3f:42:49:f8:85:cb:cf:e8:64:
                    52:3b:2f:08:75:5f:72:a0:77:10:5a:e7:15:c5:a9:
                    c0:4c:81:6f:3f:01:64:c4:99:0a:22:fb:fd:98:71:
                    2f:25:1b:5b:d4:66:6b:0a:af:4f:fc:34:3e:e3:14:
                    be:09:72:50:34:4d:88:ed:ef:42:02:21:a2:ea:1b:
                    b4:d1:ad:87:f8:b7:6b:4a:c1:64:37:cf:bd:96:2e:
                    0f:f0:43:61:45:27:e2:c3:f6:38:b8:fc:e0:bf:63:
                    31:ec:1f
                Exponent: 65537 (0x10001)
    Signature Algorithm: sha256WithRSAEncryption
         02:1c:63:58:28:36:11:c7:53:65:e0:51:33:cf:5f:4a:d7:f8:
         a5:c9:7e:23:ed:46:79:19:df:78:41:1e:3a:5d:03:61:ef:19:
         a3:05:95:1d:d8:48:04:d4:a1:03:41:85:ea:5a:07:4b:43:d7:
         31:6d:ce:bd:15:f8:23:2f:81:ee:94:e8:bb:78:24:93:bb:33:
         e2:e5:7c:97:fc:27:d6:96:8d:1c:9e:d2:bd:9d:73:97:02:c8:
         0e:a0:73:6a:ff:9c:21:02:60:93:ca:80:37:de:3e:3c:b9:1e:
         a1:57:6d:ba:e3:43:f4:c8:eb:18:60:6a:c5:4d:bb:2c:d7:05:
         86:72:2b:91:17:91:dd:82:28:b6:c3:63:a1:68:bb:9a:96:7c:
         19:35:ab:da:4b:4e:66:a0:72:8c:ec:74:19:6c:81:19:1f:de:
         a6:ec:59:07:cb:a3:fa:c9:35:72:56:a0:33:35:47:17:57:6c:
         87:30:5e:4e:34:fe:b6:eb:dc:bd:a5:d7:f7:49:af:49:ab:71:
         70:29:4a:bc:3d:05:30:18:43:a0:b4:c2:6e:50:e8:12:3d:4d:
         1f:3d:cf:b9:a7:95:97:fb:e9:8b:f9:5e:9c:be:c1:ec:fc:b0:
         68:3a:2c:58:48:95:72:6b:47:37:d7:88:03:61:29:60:e1:89:
         b9:8b:74:0d:50:64:83:f0:2d:e7:b5:38:a8:53:c4:39:bf:a9:
         43:9d:51:87:70:3a:14:56:7e:24:07:7b:65:01:b1:6b:c1:de:
         75:69:da:3f:98:94:cc:52:86:5a:b7:bc:d5:dc:99:f8:42:a6:
         70:f7:95:05:2a:24:b7:f9:63:3f:9f:92:d2:75:dd:37:1b:0a:
         6e:f6:6e:21:21:34:5f:67:28:d3:91:70:aa:ae:99:73:c0:fd:
         50:16:47:0f:f8:2d:d5:b5:27:9f:48:e5:1b:cd:3d:16:48:70:
         7d:34:1e:39:aa:dc:44:b2:e6:84:24:0a:2e:37:0f:ed:d7:bc:
         b0:f3:60:d1:4d:d6:5e:b7:04:62:50:12:82:35:6e:02:c1:26:
         cc:11:5b:3b:02:21:df:6b:bd:26:59:6b:ce:95:ed:80:16:ff:
         12:ba:6f:de:72:4e:2f:b6:42:d9:9e:44:e4:26:0c:16:60:89:
         9f:e6:bf:3d:1a:9c:eb:f6:ff:12:f9:15:df:53:1a:7a:67:bf:
         ba:f5:41:12:a1:6d:3d:09:e7:2c:e7:6f:3a:ab:f5:6b:cf:35:
         b4:df:13:7a:74:88:11:bb:d7:eb:47:55:f6:28:d6:49:af:08:
         72:e6:a2:fa:62:a7:68:ad:c4:2d:11:ef:e9:71:86:d4:25:cd:
         86:f6:5b:b5:9b:75:3c:7d
-----BEGIN CERTIFICATE-----
MIIFRjCCAy4CASYwDQYJKoZIhvcNAQELBQAwdDELMAkGA1UEBhMCZnIxDDAKBgNV
BAgMA2lkZjEOMAwGA1UEBwwFcGFyaXMxEDAOBgNVBAoMB3ZpdGFtdWkxFDASBgNV
BAsMC2F1dGhvcml0aWVzMR8wHQYDVQQDDBZjYV9pbnRlcm1lZGlhdGVfc2VydmVy
MB4XDTIxMDUxNzEyMjQzMVoXDTI0MDUxNjEyMjQzMVowXjELMAkGA1UEBhMCZnIx
DDAKBgNVBAgMA2lkZjEOMAwGA1UEBwwFcGFyaXMxEDAOBgNVBAoMB3ZpdGFtdWkx
HzAdBgNVBAMMFnNhbmRib3gyMy1hZG0uY2luZXMuZnIwggIiMA0GCSqGSIb3DQEB
AQUAA4ICDwAwggIKAoICAQDR8eHH084LOGzSMzjtDYqM+PAks4UrGqb6ruwM8+nx
UAFS7VcBa5HUP8iXJteNtePUxh77vHjmj8UypCdRA4x2iLJErdUIzXmcm0Lu8gQD
Y8osLr77r07N9GHO5K1RDJvpqj+CI46vpUE9aiWe8zWNiJoJjC/8BpIB+IManZlZ
LQllF3qC/OM4JvzNYmUzjFFDxdabaKvjjDZKJNK+7NQK2PX2yNUz/vt2clhn3vh9
f4Ltpaj2frh73CPyM6RlAECOFcdeDQpmfU8weUH/yhdTmM5lmcBbU8cddaj/mv4z
08iUnr6eq4F3sQ22DcO3unz7TKW1E55nKA6bRX6/rUmqUjPXUJGAUvdFOcMvS214
QjzjPTFV829qkIaplCLcW9YASXMS52s5bqlf7aySL3KRb54nLoD7ME3d030INTqz
Uu4pU6zG+cgwmiMjo7r6PFI8KQn7RrkyEC1CvPdbLMUmYM/HqNOYabFNsYRBxFyi
gm9r90yVkKHnSF0WznBDaCIXgYS6jBoJxBMv/FqSp09X0BsTMeeXLlHn6z9CSfiF
y8/oZFI7Lwh1X3KgdxBa5xXFqcBMgW8/AWTEmQoi+/2YcS8lG1vUZmsKr0/8ND7j
FL4JclA0TYjt70ICIaLqG7TRrYf4t2tKwWQ3z72WLg/wQ2FFJ+LD9ji4/OC/YzHs
HwIDAQABMA0GCSqGSIb3DQEBCwUAA4ICAQACHGNYKDYRx1Nl4FEzz19K1/ilyX4j
7UZ5Gd94QR46XQNh7xmjBZUd2EgE1KEDQYXqWgdLQ9cxbc69FfgjL4HulOi7eCST
uzPi5XyX/CfWlo0cntK9nXOXAsgOoHNq/5whAmCTyoA33j48uR6hV22640P0yOsY
YGrFTbss1wWGciuRF5Hdgii2w2OhaLualnwZNavaS05moHKM7HQZbIEZH96m7FkH
y6P6yTVyVqAzNUcXV2yHMF5ONP6269y9pdf3Sa9Jq3FwKUq8PQUwGEOgtMJuUOgS
PU0fPc+5p5WX++mL+V6cvsHs/LBoOixYSJVya0c314gDYSlg4Ym5i3QNUGSD8C3n
tTioU8Q5v6lDnVGHcDoUVn4kB3tlAbFrwd51ado/mJTMUoZat7zV3Jn4QqZw95UF
KiS3+WM/n5LSdd03Gwpu9m4hITRfZyjTkXCqrplzwP1QFkcP+C3VtSefSOUbzT0W
SHB9NB45qtxEsuaEJAouNw/t17yw82DRTdZetwRiUBKCNW4CwSbMEVs7AiHfa70m
WWvOle2AFv8Sum/eck4vtkLZnkTkJgwWYImf5r89Gpzr9v8S+RXfUxp6Z7+69UES
oW09Cecs5286q/VrzzW03xN6dIgRu9frR1X2KNZJrwhy5qL6YqdorcQtEe/pcYbU
Jc2G9lu1m3U8fQ==
-----END CERTIFICATE-----
