Certificate:
    Data:
        Version: 1 (0x0)
        Serial Number: 37 (0x25)
    Signature Algorithm: sha256WithRSAEncryption
        Issuer: C=fr, ST=idf, L=paris, O=vitamui, OU=authorities, CN=ca_intermediate_server
        Validity
            Not Before: May 17 12:24:25 2021 GMT
            Not After : May 16 12:24:25 2024 GMT
        Subject: C=fr, ST=idf, L=paris, O=vitamui, CN=sandbox23-adm.cines.fr
        Subject Public Key Info:
            Public Key Algorithm: rsaEncryption
                Public-Key: (4096 bit)
                Modulus:
                    00:ac:a6:d6:b6:77:26:f9:41:b8:38:59:6e:ad:f7:
                    fd:ff:bb:fd:14:b8:ab:1b:22:d6:44:36:02:f3:b2:
                    b4:b5:c6:b8:1c:24:49:86:84:ff:d4:a9:d6:e6:65:
                    28:15:d0:a4:5f:80:44:73:d4:4a:01:83:2f:3e:39:
                    e9:61:5e:f2:47:7b:95:ab:df:78:ef:4e:bb:ad:d0:
                    ae:84:14:38:63:44:02:8a:d1:7c:8d:fe:dc:8b:96:
                    dd:32:86:32:af:42:a4:7d:a6:81:69:ed:05:44:1b:
                    a4:63:21:5c:59:00:40:ad:60:14:3c:2f:bb:c7:c5:
                    2c:8b:4b:fc:a2:fc:ac:5c:24:b2:95:60:cf:fb:a5:
                    09:87:1a:7b:41:c2:e4:75:f6:c7:48:2c:07:72:b0:
                    60:1f:9e:02:f1:49:71:3c:e7:8c:64:c3:0e:3b:42:
                    b2:18:d5:17:1c:0c:cc:db:d3:73:ae:eb:8e:b2:9a:
                    9f:c1:46:23:2d:19:51:0d:b8:48:47:de:e1:ac:e0:
                    ff:15:41:74:47:4d:23:ec:83:5a:5a:24:60:f8:12:
                    e8:80:81:ae:da:db:21:22:2b:64:b8:b2:04:a9:fd:
                    10:6b:6d:de:32:64:e9:f9:0b:e0:90:9d:22:1a:ae:
                    e5:1d:47:f4:5c:bc:e8:2a:b6:a1:6c:21:0c:e4:54:
                    54:f4:28:0d:05:39:08:22:e7:07:ec:6b:0c:fa:67:
                    ae:f6:66:28:33:71:43:e9:eb:9e:47:3a:0c:b4:23:
                    74:0b:53:ee:bc:1e:49:08:16:5a:b4:be:af:fc:fd:
                    15:5a:74:b6:7a:24:fc:1f:56:c7:4e:af:23:69:60:
                    82:d2:64:1d:23:df:7c:e8:2c:f5:54:80:e4:7c:f0:
                    94:01:dc:5d:bc:d8:56:d5:a4:41:c8:fb:f4:ad:1b:
                    cc:81:4e:10:47:84:92:33:9b:29:0c:89:9e:a1:cd:
                    cd:ad:0f:1f:77:0f:4b:57:c6:6e:72:68:d0:ea:49:
                    4c:9e:5a:23:ec:89:8e:8b:60:5f:cd:7c:1b:4f:de:
                    32:2b:07:00:bb:2a:21:28:b4:2b:9b:82:b9:3c:27:
                    90:e2:cf:88:5d:58:4c:03:66:9c:cb:d3:90:f4:aa:
                    b4:02:93:a1:7d:0a:1f:81:ff:21:32:34:a6:1f:af:
                    71:b9:41:c1:3a:07:29:2b:d0:51:3d:ac:e9:05:95:
                    fc:14:64:37:08:de:75:60:3a:00:01:b8:54:97:98:
                    1b:e0:43:eb:3b:f2:d3:39:84:2c:a1:03:b3:42:5b:
                    03:e2:e4:74:a6:1a:79:49:b2:49:90:cf:2c:9e:bd:
                    7a:bb:06:c4:85:e7:da:07:c7:93:cb:41:5a:9f:bd:
                    d2:c2:41
                Exponent: 65537 (0x10001)
    Signature Algorithm: sha256WithRSAEncryption
         2f:14:a9:a2:8e:ad:c8:a8:99:02:33:3b:52:8d:2a:c9:35:2e:
         93:cd:28:5d:b5:c1:02:ca:4a:89:8d:ad:77:b5:d8:f9:62:6d:
         74:8a:36:a8:96:5d:a0:35:17:a8:cd:4e:4e:06:36:b6:41:e7:
         2e:ad:e7:03:91:48:84:8f:6b:59:6e:19:d3:09:50:19:61:ae:
         a9:5a:48:6d:a3:c6:d9:73:72:ec:8f:80:cf:4f:b0:c8:d2:36:
         60:af:24:89:2e:ce:cc:3a:61:77:31:51:ab:bf:b6:41:ab:ce:
         ef:c7:92:ab:1b:a2:54:b4:ff:0a:98:e3:ae:9a:08:f5:cd:f3:
         c8:08:06:93:72:a2:0f:4c:d8:15:a6:8f:15:5b:da:df:20:a1:
         df:4f:57:f2:e3:fd:04:57:94:fa:54:6d:0e:91:c8:f7:29:1d:
         67:16:2e:79:f9:d5:7d:6d:8f:f0:01:e7:e1:b3:d6:0a:d5:e1:
         fd:5d:9d:40:c3:56:85:42:7f:de:56:98:a6:ab:59:05:ea:7e:
         d6:0f:18:91:e5:0e:19:93:6b:0a:79:9d:72:d0:c6:99:67:21:
         85:ca:0a:a0:6f:7a:5c:e1:68:42:e9:80:2d:63:3b:d1:f3:4b:
         80:c9:8e:78:37:1e:7b:3c:9d:40:1f:7f:4f:fa:d1:17:24:0a:
         79:49:c6:bc:ab:73:93:a9:e8:b1:9a:e1:41:43:0b:0f:31:dc:
         6e:91:81:24:6d:f0:53:e8:cc:0b:98:70:06:a8:93:94:59:9f:
         b0:98:f9:5c:b2:43:ca:25:54:14:08:42:bf:a4:3e:01:ba:2f:
         35:74:42:fc:43:8c:02:0c:55:89:a6:09:77:8a:83:6c:fa:87:
         07:a7:b8:05:0f:32:da:c2:50:5f:69:93:31:7a:d8:79:99:28:
         58:63:78:fc:ae:a4:31:21:a2:1d:e0:65:95:52:80:61:30:d2:
         70:f3:b9:21:a8:00:e2:fb:e5:12:33:cd:7c:a5:74:10:13:e0:
         74:56:0a:35:3f:4c:b7:35:17:d9:bb:6c:f1:26:30:8c:b3:ce:
         f6:6a:21:16:33:fa:50:4e:44:8b:39:d1:80:f5:b7:9c:3e:d8:
         f7:85:c4:1b:d5:5c:80:ef:59:72:ad:60:bd:1e:60:14:ff:90:
         01:60:96:c7:17:b9:85:19:07:00:87:4b:67:b0:78:da:ad:33:
         9a:65:db:ca:f1:35:12:8f:3b:c7:b7:bd:dd:2d:f7:85:01:41:
         7a:4d:8c:33:f4:4c:e1:04:8d:6e:98:97:2a:3a:b0:af:4e:49:
         e4:e2:aa:31:00:7d:76:a2:76:45:0e:ed:65:34:7c:82:04:ea:
         e3:6d:4c:a8:09:da:8e:f9
-----BEGIN CERTIFICATE-----
MIIFRjCCAy4CASUwDQYJKoZIhvcNAQELBQAwdDELMAkGA1UEBhMCZnIxDDAKBgNV
BAgMA2lkZjEOMAwGA1UEBwwFcGFyaXMxEDAOBgNVBAoMB3ZpdGFtdWkxFDASBgNV
BAsMC2F1dGhvcml0aWVzMR8wHQYDVQQDDBZjYV9pbnRlcm1lZGlhdGVfc2VydmVy
MB4XDTIxMDUxNzEyMjQyNVoXDTI0MDUxNjEyMjQyNVowXjELMAkGA1UEBhMCZnIx
DDAKBgNVBAgMA2lkZjEOMAwGA1UEBwwFcGFyaXMxEDAOBgNVBAoMB3ZpdGFtdWkx
HzAdBgNVBAMMFnNhbmRib3gyMy1hZG0uY2luZXMuZnIwggIiMA0GCSqGSIb3DQEB
AQUAA4ICDwAwggIKAoICAQCspta2dyb5Qbg4WW6t9/3/u/0UuKsbItZENgLzsrS1
xrgcJEmGhP/UqdbmZSgV0KRfgERz1EoBgy8+OelhXvJHe5Wr33jvTrut0K6EFDhj
RAKK0XyN/tyLlt0yhjKvQqR9poFp7QVEG6RjIVxZAECtYBQ8L7vHxSyLS/yi/Kxc
JLKVYM/7pQmHGntBwuR19sdILAdysGAfngLxSXE854xkww47QrIY1RccDMzb03Ou
646ymp/BRiMtGVENuEhH3uGs4P8VQXRHTSPsg1paJGD4EuiAga7a2yEiK2S4sgSp
/RBrbd4yZOn5C+CQnSIaruUdR/RcvOgqtqFsIQzkVFT0KA0FOQgi5wfsawz6Z672
ZigzcUPp655HOgy0I3QLU+68HkkIFlq0vq/8/RVadLZ6JPwfVsdOryNpYILSZB0j
33zoLPVUgOR88JQB3F282FbVpEHI+/StG8yBThBHhJIzmykMiZ6hzc2tDx93D0tX
xm5yaNDqSUyeWiPsiY6LYF/NfBtP3jIrBwC7KiEotCubgrk8J5Diz4hdWEwDZpzL
05D0qrQCk6F9Ch+B/yEyNKYfr3G5QcE6Bykr0FE9rOkFlfwUZDcI3nVgOgABuFSX
mBvgQ+s78tM5hCyhA7NCWwPi5HSmGnlJskmQzyyevXq7BsSF59oHx5PLQVqfvdLC
QQIDAQABMA0GCSqGSIb3DQEBCwUAA4ICAQAvFKmijq3IqJkCMztSjSrJNS6TzShd
tcECykqJja13tdj5Ym10ijaoll2gNReozU5OBja2QecurecDkUiEj2tZbhnTCVAZ
Ya6pWkhto8bZc3Lsj4DPT7DI0jZgrySJLs7MOmF3MVGrv7ZBq87vx5KrG6JUtP8K
mOOumgj1zfPICAaTcqIPTNgVpo8VW9rfIKHfT1fy4/0EV5T6VG0Okcj3KR1nFi55
+dV9bY/wAefhs9YK1eH9XZ1Aw1aFQn/eVpimq1kF6n7WDxiR5Q4Zk2sKeZ1y0MaZ
ZyGFygqgb3pc4WhC6YAtYzvR80uAyY54Nx57PJ1AH39P+tEXJAp5Sca8q3OTqeix
muFBQwsPMdxukYEkbfBT6MwLmHAGqJOUWZ+wmPlcskPKJVQUCEK/pD4Bui81dEL8
Q4wCDFWJpgl3ioNs+ocHp7gFDzLawlBfaZMxeth5mShYY3j8rqQxIaId4GWVUoBh
MNJw87khqADi++USM818pXQQE+B0Vgo1P0y3NRfZu2zxJjCMs872aiEWM/pQTkSL
OdGA9becPtj3hcQb1VyA71lyrWC9HmAU/5ABYJbHF7mFGQcAh0tnsHjarTOaZdvK
8TUSjzvHt73dLfeFAUF6TYwz9EzhBI1umJcqOrCvTknk4qoxAH12onZFDu1lNHyC
BOrjbUyoCdqO+Q==
-----END CERTIFICATE-----
