Certificate:
    Data:
        Version: 1 (0x0)
        Serial Number: 33 (0x21)
    Signature Algorithm: sha256WithRSAEncryption
        Issuer: C=fr, ST=idf, L=paris, O=vitamui, OU=authorities, CN=ca_intermediate_server
        Validity
            Not Before: May 17 12:23:56 2021 GMT
            Not After : May 16 12:23:56 2024 GMT
        Subject: C=fr, ST=idf, L=paris, O=vitamui, CN=sandbox23-adm.cines.fr
        Subject Public Key Info:
            Public Key Algorithm: rsaEncryption
                Public-Key: (4096 bit)
                Modulus:
                    00:ea:0e:e1:c5:3d:c0:7d:fd:99:3f:7e:a8:2a:c0:
                    aa:9a:2f:75:07:de:2b:03:55:2d:ab:3b:d8:e1:a1:
                    02:88:7c:5c:36:f0:69:6a:18:3e:09:ad:19:64:fe:
                    92:af:bd:19:6f:02:af:0b:2d:28:40:f7:ec:83:1a:
                    03:e6:34:0e:e1:f5:0d:5b:ae:45:eb:91:72:4d:64:
                    33:4e:5d:ed:10:49:e0:56:b8:b0:7d:92:c2:ee:de:
                    9b:a4:f7:86:b9:e0:02:a7:44:a7:b2:b8:ac:9b:a7:
                    36:ac:6e:ee:67:e5:de:de:88:73:89:6d:05:af:81:
                    68:58:ac:62:43:b0:f4:07:d6:64:2a:77:bd:f6:15:
                    d6:05:3f:65:a2:82:4e:49:54:7d:4c:7b:48:93:6b:
                    14:bf:69:92:b8:21:60:8d:18:13:f1:c0:4e:ff:b1:
                    8b:2a:9b:75:34:71:48:c1:92:3b:43:9c:98:4b:e3:
                    42:d7:a1:4b:1e:40:ae:25:9c:36:3f:d8:b3:fd:8e:
                    a2:ba:d0:c6:7d:34:77:40:a2:a7:10:62:81:77:a1:
                    71:33:72:94:fc:03:cd:3b:b8:09:5b:96:b1:dd:2f:
                    9c:b8:50:ac:0b:6f:89:99:1f:58:19:48:70:fd:16:
                    d7:4d:72:77:fb:39:df:d8:38:9c:b6:fd:b9:01:09:
                    3e:cf:f8:da:04:bf:fe:4c:92:03:eb:7e:29:48:aa:
                    14:18:82:1a:63:da:36:e3:d6:00:5c:d3:f4:8a:24:
                    b2:ab:74:d1:88:15:22:41:c8:f2:b6:61:34:07:db:
                    fa:1c:30:8d:fa:a1:1b:73:e0:b6:9c:34:8d:b3:f3:
                    19:51:c1:7e:3d:11:c9:8f:1e:15:f5:98:2c:f1:ac:
                    22:e1:45:78:57:8b:3e:f3:81:71:ef:92:a2:49:e1:
                    9e:e9:11:6f:f7:f8:4c:78:41:24:a3:b7:33:56:49:
                    52:10:2c:0c:e7:e0:9f:01:85:ef:47:28:87:fc:c2:
                    b2:fa:b9:a2:00:6b:5b:ac:61:e8:8b:6f:1c:b0:d5:
                    9c:f0:0a:79:ee:8b:93:bc:22:a9:93:ce:6f:c2:ba:
                    97:c6:a4:6d:86:aa:46:9d:fc:0d:28:41:a5:3c:1b:
                    f8:4a:60:89:b7:ab:cc:8b:90:d8:ab:18:03:d6:5c:
                    23:6f:49:e8:57:85:f3:96:4d:3b:42:2b:12:c8:e1:
                    ce:40:27:ac:24:3d:29:90:37:d1:b7:94:ce:78:e3:
                    16:61:bd:53:4a:cc:d1:41:f4:13:22:c3:31:43:e4:
                    cf:06:a7:30:78:bf:20:33:8d:83:ef:54:24:6a:93:
                    6f:cf:fa:aa:e5:bf:dc:52:6a:4c:11:a1:14:9e:b0:
                    e0:b3:d9
                Exponent: 65537 (0x10001)
    Signature Algorithm: sha256WithRSAEncryption
         3d:1f:81:ee:df:7a:f4:c3:bf:87:dc:53:03:c4:e0:c7:37:83:
         91:94:3c:a0:49:d7:eb:cb:2a:de:98:d9:ab:ab:08:c1:5e:27:
         f6:d8:14:6c:0d:68:14:ee:89:b4:41:89:0b:d1:e9:57:89:bc:
         02:54:ba:f8:3b:3d:a3:cc:20:a1:9e:1e:f3:77:93:47:55:ca:
         ab:85:d4:45:70:28:c6:08:d7:f0:86:8f:0c:e9:d8:72:0f:17:
         7c:35:a3:a2:05:b6:b9:fb:9a:73:ea:a8:74:a3:4e:b9:49:bc:
         2c:03:95:8f:cd:79:dd:53:90:4c:52:1c:97:38:b4:b1:93:4c:
         a2:d4:98:01:e1:06:a4:29:c7:96:23:a6:e1:4c:91:9a:b8:67:
         bb:a7:ee:e4:9c:71:6f:f8:95:2f:2f:be:97:b1:d2:81:09:81:
         c8:4e:1a:eb:a9:af:dd:42:65:41:5e:db:39:95:dd:d8:50:a1:
         af:97:f3:69:ac:42:86:aa:f8:f1:d7:9a:4c:ba:cd:e9:36:0a:
         96:e9:49:1b:f3:6c:ab:79:8c:48:13:56:04:75:4b:1f:81:e6:
         24:b3:6a:7f:6b:a2:10:92:21:fd:d0:32:81:a8:81:48:dd:35:
         e0:8a:ec:dd:5b:fb:98:5b:3a:36:6b:69:d9:7d:80:9a:db:a5:
         56:76:28:a4:49:99:78:c4:f1:be:be:60:5b:dd:b2:f4:8c:b1:
         a4:26:ed:e9:a1:6e:34:de:80:f1:fb:d9:64:52:15:c2:d0:4d:
         9f:cb:ce:ff:36:39:6d:53:d9:f6:31:e2:21:dd:0a:5f:6d:bc:
         cb:31:62:aa:f3:1a:0a:0f:96:c0:e2:00:45:54:15:34:00:01:
         c6:df:75:e5:bf:a2:86:fe:b1:e8:25:82:0c:cf:5d:5b:f8:99:
         f7:bc:3d:60:88:4f:93:1b:c4:6f:10:52:d7:29:6c:7f:f4:80:
         7c:ff:d4:0d:e2:3f:be:45:71:ac:8f:07:aa:45:de:43:63:fc:
         aa:06:72:8c:87:8a:d3:24:c8:17:e9:95:4a:f8:96:2e:98:db:
         c2:7a:06:ba:4e:79:73:aa:02:c8:5d:60:f0:1e:7f:c1:c6:86:
         79:1f:4b:4a:a5:3b:05:96:7e:3b:63:25:ec:c3:1e:4b:72:82:
         a0:85:c5:af:f2:0c:9c:7e:3a:67:80:57:90:eb:98:ba:c1:8a:
         6f:39:36:66:e2:52:ea:c6:9d:c9:ff:b7:be:c2:fb:79:61:3f:
         db:1c:84:c7:59:29:a5:6e:46:38:84:f2:a9:de:d2:7b:81:bf:
         a4:ef:ca:4e:f7:16:83:14:99:9f:8d:3e:0d:97:fb:46:51:8b:
         a9:d3:e8:a6:a7:46:4c:08
-----BEGIN CERTIFICATE-----
MIIFRjCCAy4CASEwDQYJKoZIhvcNAQELBQAwdDELMAkGA1UEBhMCZnIxDDAKBgNV
BAgMA2lkZjEOMAwGA1UEBwwFcGFyaXMxEDAOBgNVBAoMB3ZpdGFtdWkxFDASBgNV
BAsMC2F1dGhvcml0aWVzMR8wHQYDVQQDDBZjYV9pbnRlcm1lZGlhdGVfc2VydmVy
MB4XDTIxMDUxNzEyMjM1NloXDTI0MDUxNjEyMjM1NlowXjELMAkGA1UEBhMCZnIx
DDAKBgNVBAgMA2lkZjEOMAwGA1UEBwwFcGFyaXMxEDAOBgNVBAoMB3ZpdGFtdWkx
HzAdBgNVBAMMFnNhbmRib3gyMy1hZG0uY2luZXMuZnIwggIiMA0GCSqGSIb3DQEB
AQUAA4ICDwAwggIKAoICAQDqDuHFPcB9/Zk/fqgqwKqaL3UH3isDVS2rO9jhoQKI
fFw28GlqGD4JrRlk/pKvvRlvAq8LLShA9+yDGgPmNA7h9Q1brkXrkXJNZDNOXe0Q
SeBWuLB9ksLu3puk94a54AKnRKeyuKybpzasbu5n5d7eiHOJbQWvgWhYrGJDsPQH
1mQqd732FdYFP2Wigk5JVH1Me0iTaxS/aZK4IWCNGBPxwE7/sYsqm3U0cUjBkjtD
nJhL40LXoUseQK4lnDY/2LP9jqK60MZ9NHdAoqcQYoF3oXEzcpT8A807uAlblrHd
L5y4UKwLb4mZH1gZSHD9FtdNcnf7Od/YOJy2/bkBCT7P+NoEv/5MkgPrfilIqhQY
ghpj2jbj1gBc0/SKJLKrdNGIFSJByPK2YTQH2/ocMI36oRtz4LacNI2z8xlRwX49
EcmPHhX1mCzxrCLhRXhXiz7zgXHvkqJJ4Z7pEW/3+Ex4QSSjtzNWSVIQLAzn4J8B
he9HKIf8wrL6uaIAa1usYeiLbxyw1ZzwCnnui5O8IqmTzm/CupfGpG2Gqkad/A0o
QaU8G/hKYIm3q8yLkNirGAPWXCNvSehXhfOWTTtCKxLI4c5AJ6wkPSmQN9G3lM54
4xZhvVNKzNFB9BMiwzFD5M8GpzB4vyAzjYPvVCRqk2/P+qrlv9xSakwRoRSesOCz
2QIDAQABMA0GCSqGSIb3DQEBCwUAA4ICAQA9H4Hu33r0w7+H3FMDxODHN4ORlDyg
SdfryyremNmrqwjBXif22BRsDWgU7om0QYkL0elXibwCVLr4Oz2jzCChnh7zd5NH
VcqrhdRFcCjGCNfwho8M6dhyDxd8NaOiBba5+5pz6qh0o065SbwsA5WPzXndU5BM
UhyXOLSxk0yi1JgB4QakKceWI6bhTJGauGe7p+7knHFv+JUvL76XsdKBCYHIThrr
qa/dQmVBXts5ld3YUKGvl/NprEKGqvjx15pMus3pNgqW6Ukb82yreYxIE1YEdUsf
geYks2p/a6IQkiH90DKBqIFI3TXgiuzdW/uYWzo2a2nZfYCa26VWdiikSZl4xPG+
vmBb3bL0jLGkJu3poW403oDx+9lkUhXC0E2fy87/NjltU9n2MeIh3QpfbbzLMWKq
8xoKD5bA4gBFVBU0AAHG33Xlv6KG/rHoJYIMz11b+Jn3vD1giE+TG8RvEFLXKWx/
9IB8/9QN4j++RXGsjweqRd5DY/yqBnKMh4rTJMgX6ZVK+JYumNvCega6TnlzqgLI
XWDwHn/BxoZ5H0tKpTsFln47YyXswx5LcoKghcWv8gycfjpngFeQ65i6wYpvOTZm
4lLqxp3J/7e+wvt5YT/bHITHWSmlbkY4hPKp3tJ7gb+k78pO9xaDFJmfjT4Nl/tG
UYup0+imp0ZMCA==
-----END CERTIFICATE-----
