Certificate:
    Data:
        Version: 1 (0x0)
        Serial Number: 40 (0x28)
    Signature Algorithm: sha256WithRSAEncryption
        Issuer: C=fr, ST=idf, L=paris, O=vitamui, OU=authorities, CN=ca_intermediate_server
        Validity
            Not Before: May 17 12:24:47 2021 GMT
            Not After : May 16 12:24:47 2024 GMT
        Subject: C=fr, ST=idf, L=paris, O=vitamui, CN=sandbox23-adm.cines.fr
        Subject Public Key Info:
            Public Key Algorithm: rsaEncryption
                Public-Key: (4096 bit)
                Modulus:
                    00:9a:de:ae:25:d3:b3:8c:ba:68:f0:9a:c8:f5:b0:
                    8f:d8:53:78:31:47:c8:a2:50:3d:e2:2b:59:9d:58:
                    f5:11:4e:41:46:07:e6:65:e8:59:0b:aa:a1:15:82:
                    ee:7d:b4:6d:b9:9d:2f:26:a2:2d:b6:bb:43:24:ff:
                    66:43:43:0c:80:8e:b7:2b:0f:0b:93:6e:0b:49:13:
                    9c:4c:2c:b5:d1:9b:fa:15:8c:35:59:e0:ce:93:5d:
                    e3:8f:a7:ce:50:e7:2f:2b:60:2c:82:9e:7b:78:4b:
                    a7:5e:24:77:d7:a4:f3:b3:2d:1b:02:c8:5f:7f:52:
                    a9:c0:09:c8:0c:a2:7d:b8:ae:37:47:50:5d:75:1d:
                    6f:fc:b2:91:ec:5b:bd:5a:cb:f5:64:3e:d4:ee:36:
                    6c:d4:b4:bc:f2:fc:a0:7c:d9:45:a8:49:07:44:16:
                    2c:7b:c2:75:1c:55:6a:78:41:7a:a3:74:5e:8d:f1:
                    38:67:68:10:dd:5b:5e:e9:91:f4:f8:1e:a6:7a:ca:
                    1a:0a:bf:55:0b:53:ee:c3:36:24:db:58:4b:1a:98:
                    b9:29:04:b9:b5:a5:c2:75:d0:61:bf:93:80:33:9f:
                    d2:f3:d2:29:31:12:db:19:1d:0c:62:20:fa:87:65:
                    d0:3a:9d:58:57:6a:8c:51:3c:ca:20:89:90:8e:95:
                    69:8a:2d:53:0b:5c:25:bd:af:e4:dd:84:f6:58:27:
                    8a:42:60:11:f3:46:25:a7:9a:b7:85:15:28:ac:3d:
                    04:39:02:f8:cc:e3:6c:af:4d:44:f0:82:82:b7:f4:
                    e3:98:57:c1:19:a5:5a:2a:dd:56:aa:56:9e:bb:ab:
                    93:57:a7:bc:56:b2:df:e6:a0:a3:27:52:cf:1e:ac:
                    1b:3c:76:d6:31:73:a7:dd:0a:9a:a6:75:b1:fa:73:
                    b9:91:45:7c:73:b2:61:52:3d:0e:47:55:d7:d8:a4:
                    e3:78:48:33:18:bc:8a:66:5f:7d:34:e9:94:49:91:
                    5a:d5:24:54:2f:89:7a:32:b9:d8:fb:45:14:4b:35:
                    34:3f:64:2f:25:f0:ce:5d:54:a3:2e:df:a2:97:fb:
                    33:0a:4a:70:88:e0:61:6b:92:56:39:12:e8:f9:89:
                    2f:d4:8c:48:2e:de:c4:6a:f1:2c:51:0d:8c:c2:d2:
                    12:11:1b:17:5e:7a:19:ea:81:b9:42:de:f5:90:f5:
                    2d:40:e9:24:34:f8:ce:eb:f2:c3:c5:40:ea:97:19:
                    33:f5:36:63:c8:38:1d:7a:35:15:51:1e:19:52:a0:
                    86:ab:d2:e2:46:a0:01:60:15:61:0f:c5:11:a6:d1:
                    d7:5f:b1:59:12:7a:f4:0b:6c:9a:7b:78:e1:52:b3:
                    ad:97:2d
                Exponent: 65537 (0x10001)
    Signature Algorithm: sha256WithRSAEncryption
         33:0d:76:0e:00:28:f3:b5:93:30:90:dd:cd:35:f5:86:5d:8a:
         ab:44:3f:db:96:e5:69:e6:3f:02:4d:c4:8c:a3:52:24:6a:36:
         a2:54:e0:1c:72:73:e2:75:5d:2f:c9:07:32:51:c6:8d:e2:11:
         27:89:f7:34:bf:ca:a5:67:1b:36:ee:09:28:bc:f0:eb:f0:5f:
         b1:76:18:86:0e:95:d9:0f:35:db:af:c6:86:ba:f4:36:ad:72:
         a7:40:af:7c:00:5c:09:3f:bf:a8:50:9b:5d:89:ab:07:ec:38:
         88:60:ba:4f:29:95:e2:e7:50:4c:2e:e5:7e:dc:61:96:48:cb:
         d0:7f:40:47:37:4c:74:1d:5b:1b:a8:79:e4:e2:4f:7c:49:e9:
         e6:04:0e:16:26:f7:03:f0:84:92:c7:9e:05:6c:1a:a9:36:7f:
         c5:5a:81:90:5f:7b:72:d1:de:78:9a:d4:f0:21:6a:bc:06:40:
         d0:79:a8:f6:1c:09:05:98:00:10:9f:0b:b9:4e:b4:3b:0d:db:
         50:35:35:36:d8:dc:5f:86:22:6a:f1:15:95:ff:6d:06:b0:cd:
         a8:54:ca:35:e5:af:dd:7e:08:8c:8d:bf:09:1b:39:64:be:9c:
         5b:0b:6c:d3:25:fe:21:4d:34:56:1c:4d:0f:51:ac:95:77:41:
         49:41:2d:b0:0a:d3:23:83:6d:aa:65:51:44:84:d6:4a:66:a8:
         89:41:11:a2:93:42:e1:ba:09:97:10:a3:53:bd:5c:c4:6f:6b:
         21:6d:7b:a5:17:0f:54:a7:6c:1b:90:33:df:75:48:7f:92:c8:
         a5:86:b3:16:c0:af:99:ec:61:42:3f:d4:a6:3c:93:a9:b5:a3:
         2c:09:e6:38:14:7f:8f:10:7e:6f:e4:33:6f:94:98:4e:a1:16:
         29:a1:db:d8:ca:31:ea:e1:d6:74:be:76:45:91:ac:2a:2e:f9:
         13:6b:e5:48:78:39:48:6a:9e:4d:7d:7d:bc:9f:9a:9a:63:5a:
         b7:75:a9:19:01:99:fa:94:66:74:da:8a:66:ff:25:04:f6:91:
         8d:d1:19:15:fb:66:3d:8f:35:b8:a3:5e:b8:81:7b:31:e7:f0:
         47:47:ee:d4:f4:ef:01:69:f3:50:27:af:2f:af:68:06:16:53:
         44:71:53:1f:d3:21:8e:ce:73:7e:d8:41:c6:9a:78:c4:f8:f6:
         c6:48:60:21:b3:77:cb:d6:0c:21:d2:76:43:03:cd:d0:b1:cc:
         a2:86:a5:bf:36:59:15:33:39:cf:9c:46:7f:e6:2e:bf:11:ec:
         1e:76:c0:e8:9a:bf:ce:20:56:c1:a1:28:ae:e7:ca:a4:53:5b:
         e1:c7:10:80:cb:5f:e4:23
-----BEGIN CERTIFICATE-----
MIIFRjCCAy4CASgwDQYJKoZIhvcNAQELBQAwdDELMAkGA1UEBhMCZnIxDDAKBgNV
BAgMA2lkZjEOMAwGA1UEBwwFcGFyaXMxEDAOBgNVBAoMB3ZpdGFtdWkxFDASBgNV
BAsMC2F1dGhvcml0aWVzMR8wHQYDVQQDDBZjYV9pbnRlcm1lZGlhdGVfc2VydmVy
MB4XDTIxMDUxNzEyMjQ0N1oXDTI0MDUxNjEyMjQ0N1owXjELMAkGA1UEBhMCZnIx
DDAKBgNVBAgMA2lkZjEOMAwGA1UEBwwFcGFyaXMxEDAOBgNVBAoMB3ZpdGFtdWkx
HzAdBgNVBAMMFnNhbmRib3gyMy1hZG0uY2luZXMuZnIwggIiMA0GCSqGSIb3DQEB
AQUAA4ICDwAwggIKAoICAQCa3q4l07OMumjwmsj1sI/YU3gxR8iiUD3iK1mdWPUR
TkFGB+Zl6FkLqqEVgu59tG25nS8moi22u0Mk/2ZDQwyAjrcrDwuTbgtJE5xMLLXR
m/oVjDVZ4M6TXeOPp85Q5y8rYCyCnnt4S6deJHfXpPOzLRsCyF9/UqnACcgMon24
rjdHUF11HW/8spHsW71ay/VkPtTuNmzUtLzy/KB82UWoSQdEFix7wnUcVWp4QXqj
dF6N8ThnaBDdW17pkfT4HqZ6yhoKv1ULU+7DNiTbWEsamLkpBLm1pcJ10GG/k4Az
n9Lz0ikxEtsZHQxiIPqHZdA6nVhXaoxRPMogiZCOlWmKLVMLXCW9r+TdhPZYJ4pC
YBHzRiWnmreFFSisPQQ5AvjM42yvTUTwgoK39OOYV8EZpVoq3VaqVp67q5NXp7xW
st/moKMnUs8erBs8dtYxc6fdCpqmdbH6c7mRRXxzsmFSPQ5HVdfYpON4SDMYvIpm
X3006ZRJkVrVJFQviXoyudj7RRRLNTQ/ZC8l8M5dVKMu36KX+zMKSnCI4GFrklY5
Euj5iS/UjEgu3sRq8SxRDYzC0hIRGxdeehnqgblC3vWQ9S1A6SQ0+M7r8sPFQOqX
GTP1NmPIOB16NRVRHhlSoIar0uJGoAFgFWEPxRGm0ddfsVkSevQLbJp7eOFSs62X
LQIDAQABMA0GCSqGSIb3DQEBCwUAA4ICAQAzDXYOACjztZMwkN3NNfWGXYqrRD/b
luVp5j8CTcSMo1IkajaiVOAccnPidV0vyQcyUcaN4hEnifc0v8qlZxs27gkovPDr
8F+xdhiGDpXZDzXbr8aGuvQ2rXKnQK98AFwJP7+oUJtdiasH7DiIYLpPKZXi51BM
LuV+3GGWSMvQf0BHN0x0HVsbqHnk4k98SenmBA4WJvcD8ISSx54FbBqpNn/FWoGQ
X3ty0d54mtTwIWq8BkDQeaj2HAkFmAAQnwu5TrQ7DdtQNTU22NxfhiJq8RWV/20G
sM2oVMo15a/dfgiMjb8JGzlkvpxbC2zTJf4hTTRWHE0PUayVd0FJQS2wCtMjg22q
ZVFEhNZKZqiJQRGik0LhugmXEKNTvVzEb2shbXulFw9Up2wbkDPfdUh/ksilhrMW
wK+Z7GFCP9SmPJOptaMsCeY4FH+PEH5v5DNvlJhOoRYpodvYyjHq4dZ0vnZFkawq
LvkTa+VIeDlIap5NfX28n5qaY1q3dakZAZn6lGZ02opm/yUE9pGN0RkV+2Y9jzW4
o164gXsx5/BHR+7U9O8BafNQJ68vr2gGFlNEcVMf0yGOznN+2EHGmnjE+PbGSGAh
s3fL1gwh0nZDA83QscyihqW/NlkVMznPnEZ/5i6/EewedsDomr/OIFbBoSiu58qk
U1vhxxCAy1/kIw==
-----END CERTIFICATE-----
