Certificate:
    Data:
        Version: 1 (0x0)
        Serial Number: 35 (0x23)
    Signature Algorithm: sha256WithRSAEncryption
        Issuer: C=fr, ST=idf, L=paris, O=vitamui, OU=authorities, CN=ca_intermediate_server
        Validity
            Not Before: May 17 12:24:10 2021 GMT
            Not After : May 16 12:24:10 2024 GMT
        Subject: C=fr, ST=idf, L=paris, O=vitamui, CN=sandbox23-adm.cines.fr
        Subject Public Key Info:
            Public Key Algorithm: rsaEncryption
                Public-Key: (4096 bit)
                Modulus:
                    00:b7:93:e1:d8:ee:c5:3c:a2:ab:e9:0a:b5:c0:f7:
                    79:96:a1:40:eb:72:c0:17:f3:7e:df:50:aa:9a:23:
                    39:7f:35:55:04:ba:30:88:55:9e:bd:e5:1f:fc:65:
                    ba:ac:fc:3c:fa:ce:10:14:85:bb:5b:ce:9e:b2:11:
                    5b:17:05:d2:e3:8b:9c:de:92:5a:cc:de:ed:44:a2:
                    a7:05:04:65:e2:36:d6:3d:3c:a9:09:9a:ad:ff:b2:
                    16:a9:cb:ed:7a:11:c1:ec:4e:d3:ba:72:86:f7:82:
                    5c:3c:7d:0e:87:bb:05:0a:61:5b:95:9c:57:3a:a8:
                    75:12:17:ba:bc:8f:eb:26:f8:f4:29:e6:e0:f6:eb:
                    04:1e:cd:a0:9b:f5:72:38:d4:6a:2f:79:d3:14:79:
                    e2:fd:60:a1:60:bb:24:c5:a9:ac:aa:5f:13:5b:49:
                    53:20:12:8d:9b:b7:28:cf:58:93:f7:fd:1c:38:d0:
                    1d:97:08:d2:e7:2f:7b:26:a5:8c:b4:bd:f5:82:22:
                    3f:34:62:d1:2d:fd:54:7e:fe:dc:9e:6d:8c:b9:bd:
                    92:ee:56:dd:d9:7f:6d:0a:8a:bb:2a:47:29:bb:4f:
                    8e:0d:6a:b6:51:a0:d1:25:85:07:67:44:68:1b:57:
                    2e:e7:9f:1f:34:42:ab:bf:23:05:84:b1:6d:fe:0f:
                    1c:d4:57:0a:68:e4:38:04:ca:d3:93:c7:b6:32:02:
                    5d:92:cb:4b:3c:e5:ab:9d:1f:1a:83:72:66:11:d5:
                    cb:a4:84:c5:05:ce:39:a6:d4:b7:31:1d:e2:33:9a:
                    b4:20:a2:c9:1f:48:2c:0d:9d:05:18:3a:9e:ec:d6:
                    5b:9d:d7:17:91:84:5a:18:0e:b3:7b:40:f9:01:de:
                    a3:b2:ff:28:d6:83:e9:6a:9f:0c:9d:d1:43:9f:f3:
                    a5:91:6a:6c:f0:e8:59:92:e7:e2:82:8e:12:c5:21:
                    c6:88:61:43:20:3b:42:eb:4c:37:98:20:e4:af:ba:
                    49:f9:ba:c7:f7:53:3f:78:86:06:6f:03:66:4c:38:
                    95:08:31:24:7b:92:75:fd:40:27:76:46:31:54:53:
                    aa:b9:c0:d2:9e:d1:a4:48:18:1a:39:d3:85:0c:2f:
                    ed:4c:e5:27:22:af:7a:2f:a9:a8:63:9b:12:c3:da:
                    bf:84:53:2c:b3:34:3e:90:e9:ec:5c:c0:47:67:9d:
                    09:1f:ae:c1:ba:50:57:19:ce:77:5b:52:bc:4b:fa:
                    51:10:ca:df:8d:2e:4e:95:20:da:be:7d:e8:4f:26:
                    90:81:f8:1a:14:6f:d0:69:2d:cd:71:ed:b0:82:cd:
                    e2:6e:c3:a7:b4:13:c8:11:6a:07:31:ca:17:44:cd:
                    70:8d:95
                Exponent: 65537 (0x10001)
    Signature Algorithm: sha256WithRSAEncryption
         15:22:6f:69:69:34:d6:b6:24:88:78:e9:75:3b:34:24:e0:a8:
         85:17:1b:c9:17:8b:45:95:64:d2:83:57:00:4e:d1:06:bc:75:
         00:dd:5d:c1:38:b6:09:a0:e5:fc:e7:9f:9c:6c:f8:eb:94:ab:
         48:c3:10:77:36:47:05:1d:1c:27:9f:db:3c:50:d2:e8:d1:91:
         10:1d:cb:94:14:9b:26:62:da:54:95:3e:56:01:6e:6c:a4:6f:
         78:76:88:28:d3:db:67:e9:7b:25:d1:57:44:5e:67:36:1a:cc:
         c4:78:d2:3f:f7:31:39:55:0f:6d:57:8d:f6:e1:cb:5d:94:e7:
         9b:df:fc:e9:d3:48:d9:cb:5b:88:1a:ae:3a:8a:74:65:43:a4:
         40:25:22:db:39:87:a6:bf:93:c5:0b:57:93:9b:7b:a7:41:38:
         80:6a:ed:05:bd:a9:cd:9f:7c:f4:9b:0b:ea:13:a8:91:66:b6:
         94:fb:2d:a6:46:da:f8:f8:ad:b5:b3:ee:97:55:de:53:01:11:
         28:50:e3:92:ee:d8:06:fe:4c:d5:f5:2b:78:08:3e:85:bd:28:
         62:4f:71:e1:bf:3d:49:b5:a9:e7:7e:3d:ae:31:bf:4d:da:9e:
         6f:d9:74:d2:8e:5e:f3:7b:89:8d:fa:77:a7:db:dc:5d:66:fa:
         fe:5d:97:51:e8:54:19:40:fa:8e:40:d1:42:8d:88:42:e5:d7:
         af:7e:f4:6c:62:4d:48:48:7c:fe:5d:22:45:0f:93:ae:1f:34:
         61:13:9a:1d:54:c5:d8:32:82:ed:bb:2b:41:b4:3f:55:ea:3f:
         21:3e:20:c9:e7:6f:f5:31:05:f0:84:e8:cc:d3:fa:bd:b7:c3:
         20:d3:a7:09:29:a4:b8:1c:97:f4:d9:f5:f7:a9:93:30:2e:8d:
         a7:93:c0:d6:b7:95:b8:a5:b4:eb:fd:da:11:9b:7f:88:30:75:
         79:d5:0e:01:30:49:fb:61:07:ac:5d:fc:07:84:3b:0f:7a:50:
         98:ef:40:49:bf:65:c8:83:af:dc:16:0d:1f:34:68:a5:74:d5:
         5a:a1:90:c5:27:ad:47:c3:95:e2:8a:4f:8f:9e:7b:87:76:83:
         69:b0:3d:94:0c:e2:2b:11:9f:c8:54:b1:d5:85:1f:af:3c:f1:
         2c:62:cb:b8:ef:e5:15:25:e6:7a:07:13:ed:55:f7:ec:86:75:
         7b:44:e5:fc:83:71:55:bb:33:43:62:89:5c:d6:24:f7:44:9f:
         59:91:d0:73:18:7e:35:c4:cf:7a:44:ad:83:88:14:49:95:26:
         6a:df:c6:79:49:01:fa:ac:5a:43:1a:97:c6:aa:a3:3d:36:65:
         e7:0f:7a:5e:41:d6:11:30
-----BEGIN CERTIFICATE-----
MIIFRjCCAy4CASMwDQYJKoZIhvcNAQELBQAwdDELMAkGA1UEBhMCZnIxDDAKBgNV
BAgMA2lkZjEOMAwGA1UEBwwFcGFyaXMxEDAOBgNVBAoMB3ZpdGFtdWkxFDASBgNV
BAsMC2F1dGhvcml0aWVzMR8wHQYDVQQDDBZjYV9pbnRlcm1lZGlhdGVfc2VydmVy
MB4XDTIxMDUxNzEyMjQxMFoXDTI0MDUxNjEyMjQxMFowXjELMAkGA1UEBhMCZnIx
DDAKBgNVBAgMA2lkZjEOMAwGA1UEBwwFcGFyaXMxEDAOBgNVBAoMB3ZpdGFtdWkx
HzAdBgNVBAMMFnNhbmRib3gyMy1hZG0uY2luZXMuZnIwggIiMA0GCSqGSIb3DQEB
AQUAA4ICDwAwggIKAoICAQC3k+HY7sU8oqvpCrXA93mWoUDrcsAX837fUKqaIzl/
NVUEujCIVZ695R/8Zbqs/Dz6zhAUhbtbzp6yEVsXBdLji5zeklrM3u1EoqcFBGXi
NtY9PKkJmq3/shapy+16EcHsTtO6cob3glw8fQ6HuwUKYVuVnFc6qHUSF7q8j+sm
+PQp5uD26wQezaCb9XI41GovedMUeeL9YKFguyTFqayqXxNbSVMgEo2btyjPWJP3
/Rw40B2XCNLnL3smpYy0vfWCIj80YtEt/VR+/tyebYy5vZLuVt3Zf20KirsqRym7
T44NarZRoNElhQdnRGgbVy7nnx80Qqu/IwWEsW3+DxzUVwpo5DgEytOTx7YyAl2S
y0s85audHxqDcmYR1cukhMUFzjmm1LcxHeIzmrQgoskfSCwNnQUYOp7s1lud1xeR
hFoYDrN7QPkB3qOy/yjWg+lqnwyd0UOf86WRamzw6FmS5+KCjhLFIcaIYUMgO0Lr
TDeYIOSvukn5usf3Uz94hgZvA2ZMOJUIMSR7knX9QCd2RjFUU6q5wNKe0aRIGBo5
04UML+1M5Scir3ovqahjmxLD2r+EUyyzND6Q6excwEdnnQkfrsG6UFcZzndbUrxL
+lEQyt+NLk6VINq+fehPJpCB+BoUb9BpLc1x7bCCzeJuw6e0E8gRagcxyhdEzXCN
lQIDAQABMA0GCSqGSIb3DQEBCwUAA4ICAQAVIm9paTTWtiSIeOl1OzQk4KiFFxvJ
F4tFlWTSg1cATtEGvHUA3V3BOLYJoOX855+cbPjrlKtIwxB3NkcFHRwnn9s8UNLo
0ZEQHcuUFJsmYtpUlT5WAW5spG94dogo09tn6Xsl0VdEXmc2GszEeNI/9zE5VQ9t
V4324ctdlOeb3/zp00jZy1uIGq46inRlQ6RAJSLbOYemv5PFC1eTm3unQTiAau0F
vanNn3z0mwvqE6iRZraU+y2mRtr4+K21s+6XVd5TAREoUOOS7tgG/kzV9St4CD6F
vShiT3Hhvz1Jtannfj2uMb9N2p5v2XTSjl7ze4mN+nen29xdZvr+XZdR6FQZQPqO
QNFCjYhC5devfvRsYk1ISHz+XSJFD5OuHzRhE5odVMXYMoLtuytBtD9V6j8hPiDJ
52/1MQXwhOjM0/q9t8Mg06cJKaS4HJf02fX3qZMwLo2nk8DWt5W4pbTr/doRm3+I
MHV51Q4BMEn7YQesXfwHhDsPelCY70BJv2XIg6/cFg0fNGildNVaoZDFJ61Hw5Xi
ik+PnnuHdoNpsD2UDOIrEZ/IVLHVhR+vPPEsYsu47+UVJeZ6BxPtVffshnV7ROX8
g3FVuzNDYolc1iT3RJ9ZkdBzGH41xM96RK2DiBRJlSZq38Z5SQH6rFpDGpfGqqM9
NmXnD3peQdYRMA==
-----END CERTIFICATE-----
