Certificate:
    Data:
        Version: 1 (0x0)
        Serial Number: 39 (0x27)
    Signature Algorithm: sha256WithRSAEncryption
        Issuer: C=fr, ST=idf, L=paris, O=vitamui, OU=authorities, CN=ca_intermediate_server
        Validity
            Not Before: May 17 12:24:38 2021 GMT
            Not After : May 16 12:24:38 2024 GMT
        Subject: C=fr, ST=idf, L=paris, O=vitamui, CN=sandbox23-adm.cines.fr
        Subject Public Key Info:
            Public Key Algorithm: rsaEncryption
                Public-Key: (4096 bit)
                Modulus:
                    00:bf:fe:e8:2a:2d:48:47:06:7e:ec:b6:4d:1a:9e:
                    8c:e0:d7:e1:3a:bf:94:39:4a:66:a8:53:1f:0e:1d:
                    b2:02:bb:36:bb:06:56:61:75:0a:0c:ef:2c:03:51:
                    3f:d1:02:1d:84:19:71:43:5c:fd:64:12:39:ce:24:
                    2e:dd:87:45:40:6d:bb:80:38:15:b1:38:ec:e9:c3:
                    f4:00:20:a9:ae:f0:c6:bd:f3:95:18:5b:1a:47:aa:
                    e0:02:5d:0a:70:54:56:52:ea:5f:52:e0:a8:4c:89:
                    59:1a:bd:d2:5e:a9:40:4c:6e:91:b4:fc:f0:b2:be:
                    f5:67:f1:af:df:8e:8a:fd:62:37:9f:b9:0b:47:49:
                    5c:3e:b0:09:10:43:af:48:44:66:97:dd:ff:2d:fa:
                    1a:d6:54:a7:24:10:76:4e:cc:39:0f:bc:45:c4:ee:
                    35:6c:9a:46:71:30:7b:c5:1d:91:09:44:76:a6:aa:
                    c7:cd:dc:8b:30:b8:74:19:24:a3:0b:e9:05:d4:0d:
                    f3:11:08:0c:40:f3:fb:96:75:fc:85:88:1a:5f:cf:
                    0f:90:d2:f8:cc:56:fd:24:36:34:2a:86:fe:7a:dc:
                    b9:7f:ad:af:ec:4c:c7:13:d2:8b:1c:c1:2d:7a:4a:
                    02:f5:2a:50:00:c7:4a:9b:dc:da:e4:ad:c6:d7:4e:
                    d3:2e:ee:f4:07:00:04:db:9b:ac:66:fb:9d:6e:82:
                    2b:96:0e:13:76:31:45:2d:37:0c:7d:e8:13:f2:a3:
                    45:84:04:b3:85:50:aa:0e:31:ec:a8:b7:3a:68:c3:
                    ab:86:9a:cf:71:62:b2:c2:69:44:a9:01:eb:97:16:
                    0e:0f:d2:94:ed:fe:23:1a:44:73:f2:4c:4a:4a:15:
                    56:bf:e2:ce:7c:47:b1:37:e8:d0:4b:56:da:9d:f1:
                    d5:ad:2e:d4:f9:bc:fc:c0:96:7d:b3:d1:52:d8:1f:
                    5f:8c:b8:b0:01:ba:49:24:88:02:30:c6:27:9d:f5:
                    7f:5c:07:1b:f4:5e:c4:6a:33:29:fc:27:d9:58:c5:
                    5c:23:11:4c:c1:be:62:3b:00:31:d5:6b:87:95:c9:
                    a4:11:64:91:8b:f0:2b:70:fd:e5:b9:eb:f1:a4:78:
                    68:0e:c9:a0:47:83:a4:6e:6c:fe:a6:58:45:2c:3f:
                    c2:97:ab:a2:29:fd:34:ee:a9:da:10:0d:7d:f7:aa:
                    4c:57:a9:cc:c6:1f:de:04:50:5b:dc:7f:dd:38:cd:
                    10:ba:95:48:20:27:30:a5:9f:41:10:41:35:09:e5:
                    ca:da:48:86:09:81:24:6c:ea:69:bc:0f:b7:48:75:
                    6a:25:3f:8b:35:64:0d:05:8f:6b:5c:07:61:25:71:
                    a4:4e:cd
                Exponent: 65537 (0x10001)
    Signature Algorithm: sha256WithRSAEncryption
         38:ac:86:f2:f3:d0:9c:8e:1e:d0:f5:d9:0f:de:9d:55:ac:7a:
         af:79:81:3c:94:5f:5f:f0:04:8f:11:ab:3d:35:5d:ac:df:a5:
         13:f0:d0:59:bb:31:30:99:31:26:cc:23:26:ad:91:9a:3a:58:
         9d:06:cb:77:84:12:71:58:0d:ad:56:aa:a9:d7:ea:57:5b:e2:
         59:1e:8d:b5:b3:25:e4:eb:fb:66:40:2d:d7:75:95:af:f9:64:
         c3:40:71:bf:ee:5d:26:88:15:e5:4e:d2:f7:db:94:14:6c:fd:
         d5:69:b9:bf:0d:65:d2:b9:26:f0:9d:4e:10:75:81:6b:db:39:
         d3:4b:3d:13:85:4b:22:ff:c0:84:6e:f9:db:eb:cf:3a:d5:30:
         8a:57:cb:92:96:b6:26:d3:32:64:c1:c6:07:de:53:68:e2:ae:
         68:34:25:2f:5e:5f:db:e9:67:d9:46:db:ba:47:5a:ad:5c:0c:
         49:29:b6:70:ca:8d:6b:73:fa:84:f2:dc:7f:ac:15:64:fa:54:
         f9:53:78:64:7d:8c:45:44:98:55:0c:12:f9:3d:73:32:34:f0:
         c6:30:e1:f6:ec:6c:e7:67:9b:4c:a7:57:e0:37:53:d2:ee:d9:
         37:17:70:5d:b0:0b:c0:29:b0:b6:39:03:4d:e7:80:5b:98:e4:
         84:fa:40:36:f1:fd:d9:d3:c6:d8:00:d2:0a:0b:1c:f9:bd:e4:
         d6:76:59:25:ae:0a:f9:bf:37:2f:09:e4:7a:76:46:d5:cd:e0:
         44:3d:a9:b9:97:3b:6d:12:12:9c:32:42:d7:55:46:70:cb:7f:
         35:55:59:e2:4f:2d:79:78:fe:82:94:2d:4a:18:04:f2:c6:a1:
         aa:44:c6:ae:9f:68:76:ee:70:79:38:44:e8:82:22:89:dc:a7:
         49:d2:2f:e1:83:49:7d:bd:81:00:73:78:ba:dc:51:99:2f:b3:
         38:98:59:77:7f:ad:ed:4c:8a:59:e9:1f:62:a4:fb:38:a6:ff:
         15:64:c8:ae:da:d6:ba:80:42:8d:5f:cb:68:9d:ba:dd:2c:b4:
         5d:68:00:0e:db:e2:b3:95:66:06:58:66:f6:fb:8b:d1:28:66:
         91:b5:5a:29:c2:be:c5:16:94:de:5f:d8:fd:11:55:80:85:8e:
         43:d6:55:94:e3:bb:17:fe:83:22:60:36:53:c4:ba:67:39:52:
         e7:e0:f3:a7:1e:b2:28:85:69:19:d4:9e:45:af:44:cf:04:59:
         85:a0:89:4a:1c:2c:3d:16:e5:bc:15:02:3b:c3:d6:cd:5e:76:
         8e:a9:c4:3b:14:fd:5b:87:26:e4:fa:05:ab:48:a8:56:c2:1e:
         55:49:2b:3d:00:79:7f:fb
-----BEGIN CERTIFICATE-----
MIIFRjCCAy4CAScwDQYJKoZIhvcNAQELBQAwdDELMAkGA1UEBhMCZnIxDDAKBgNV
BAgMA2lkZjEOMAwGA1UEBwwFcGFyaXMxEDAOBgNVBAoMB3ZpdGFtdWkxFDASBgNV
BAsMC2F1dGhvcml0aWVzMR8wHQYDVQQDDBZjYV9pbnRlcm1lZGlhdGVfc2VydmVy
MB4XDTIxMDUxNzEyMjQzOFoXDTI0MDUxNjEyMjQzOFowXjELMAkGA1UEBhMCZnIx
DDAKBgNVBAgMA2lkZjEOMAwGA1UEBwwFcGFyaXMxEDAOBgNVBAoMB3ZpdGFtdWkx
HzAdBgNVBAMMFnNhbmRib3gyMy1hZG0uY2luZXMuZnIwggIiMA0GCSqGSIb3DQEB
AQUAA4ICDwAwggIKAoICAQC//ugqLUhHBn7stk0anozg1+E6v5Q5SmaoUx8OHbIC
uza7BlZhdQoM7ywDUT/RAh2EGXFDXP1kEjnOJC7dh0VAbbuAOBWxOOzpw/QAIKmu
8Ma985UYWxpHquACXQpwVFZS6l9S4KhMiVkavdJeqUBMbpG0/PCyvvVn8a/fjor9
YjefuQtHSVw+sAkQQ69IRGaX3f8t+hrWVKckEHZOzDkPvEXE7jVsmkZxMHvFHZEJ
RHamqsfN3IswuHQZJKML6QXUDfMRCAxA8/uWdfyFiBpfzw+Q0vjMVv0kNjQqhv56
3Ll/ra/sTMcT0oscwS16SgL1KlAAx0qb3NrkrcbXTtMu7vQHAATbm6xm+51ugiuW
DhN2MUUtNwx96BPyo0WEBLOFUKoOMeyotzpow6uGms9xYrLCaUSpAeuXFg4P0pTt
/iMaRHPyTEpKFVa/4s58R7E36NBLVtqd8dWtLtT5vPzAln2z0VLYH1+MuLABukkk
iAIwxied9X9cBxv0XsRqMyn8J9lYxVwjEUzBvmI7ADHVa4eVyaQRZJGL8Ctw/eW5
6/GkeGgOyaBHg6RubP6mWEUsP8KXq6Ip/TTuqdoQDX33qkxXqczGH94EUFvcf904
zRC6lUggJzCln0EQQTUJ5craSIYJgSRs6mm8D7dIdWolP4s1ZA0Fj2tcB2ElcaRO
zQIDAQABMA0GCSqGSIb3DQEBCwUAA4ICAQA4rIby89Ccjh7Q9dkP3p1VrHqveYE8
lF9f8ASPEas9NV2s36UT8NBZuzEwmTEmzCMmrZGaOlidBst3hBJxWA2tVqqp1+pX
W+JZHo21syXk6/tmQC3XdZWv+WTDQHG/7l0miBXlTtL325QUbP3Vabm/DWXSuSbw
nU4QdYFr2znTSz0ThUsi/8CEbvnb68861TCKV8uSlrYm0zJkwcYH3lNo4q5oNCUv
Xl/b6WfZRtu6R1qtXAxJKbZwyo1rc/qE8tx/rBVk+lT5U3hkfYxFRJhVDBL5PXMy
NPDGMOH27GznZ5tMp1fgN1PS7tk3F3BdsAvAKbC2OQNN54BbmOSE+kA28f3Z08bY
ANIKCxz5veTWdlklrgr5vzcvCeR6dkbVzeBEPam5lzttEhKcMkLXVUZwy381VVni
Ty15eP6ClC1KGATyxqGqRMaun2h27nB5OETogiKJ3KdJ0i/hg0l9vYEAc3i63FGZ
L7M4mFl3f63tTIpZ6R9ipPs4pv8VZMiu2ta6gEKNX8tonbrdLLRdaAAO2+KzlWYG
WGb2+4vRKGaRtVopwr7FFpTeX9j9EVWAhY5D1lWU47sX/oMiYDZTxLpnOVLn4POn
HrIohWkZ1J5Fr0TPBFmFoIlKHCw9FuW8FQI7w9bNXnaOqcQ7FP1bhybk+gWrSKhW
wh5VSSs9AHl/+w==
-----END CERTIFICATE-----
