Certificate:
    Data:
        Version: 1 (0x0)
        Serial Number: 34 (0x22)
    Signature Algorithm: sha256WithRSAEncryption
        Issuer: C=fr, ST=idf, L=paris, O=vitamui, OU=authorities, CN=ca_intermediate_server
        Validity
            Not Before: May 17 12:24:02 2021 GMT
            Not After : May 16 12:24:02 2024 GMT
        Subject: C=fr, ST=idf, L=paris, O=vitamui, CN=sandbox23-adm.cines.fr
        Subject Public Key Info:
            Public Key Algorithm: rsaEncryption
                Public-Key: (4096 bit)
                Modulus:
                    00:ad:86:ca:c7:9b:42:49:b5:0c:70:92:31:40:72:
                    db:95:85:5c:e4:e5:83:03:39:44:9d:9e:9f:f3:69:
                    dd:6b:31:b8:df:91:bf:f7:8e:80:91:30:41:94:47:
                    74:b1:81:b9:da:a1:cd:a9:00:a0:2f:e8:66:e0:14:
                    2e:ab:a8:13:5a:57:6a:c7:ba:9e:00:7b:1e:2b:42:
                    99:89:ad:3e:a7:e9:cc:d6:28:f6:3c:4a:e4:04:0b:
                    d7:9c:8c:0d:f5:c1:a0:25:3a:ca:95:19:7f:2c:17:
                    ee:10:15:8d:96:11:ab:96:c7:3c:60:e9:73:df:09:
                    6b:ed:73:cd:c0:3e:16:d5:d5:d9:cf:37:68:b9:10:
                    c0:b8:4c:dd:6c:5f:92:d1:d1:bb:ef:12:de:75:31:
                    6e:72:20:5a:a0:dd:ef:58:eb:3f:ea:0e:0c:84:d6:
                    15:b8:c8:9b:5b:24:73:90:c1:58:5d:e5:65:0b:da:
                    db:71:77:a0:7c:a9:70:f0:7a:ac:c2:56:12:55:e6:
                    4e:ab:be:ce:6a:11:b4:93:24:c8:a3:22:e0:c0:5e:
                    ef:94:92:41:c8:0c:e0:9e:ff:b6:bd:4a:97:4f:7e:
                    b2:91:b4:1f:4a:b3:6c:f5:54:fe:cc:34:c5:d4:f7:
                    14:47:05:79:78:3c:ba:ae:a1:ee:c2:2b:4f:8b:cb:
                    d2:aa:cf:19:a7:da:19:6e:fe:bd:0f:73:2b:83:b1:
                    53:3c:39:69:bc:96:8e:98:f1:28:21:8a:80:3a:fb:
                    25:91:f0:2d:b9:7b:33:49:31:48:43:b1:66:5a:a1:
                    09:d4:e5:c2:18:46:92:d9:9a:9d:47:7e:04:77:1f:
                    10:e8:22:44:6d:47:b0:65:04:4c:ce:68:a0:03:af:
                    86:d2:80:f0:e8:26:b6:90:2f:fb:39:53:cb:94:68:
                    7a:9c:6b:7e:55:c3:e0:4f:ff:ef:f9:30:f5:2c:3d:
                    0b:17:d7:6a:04:19:9c:f7:89:c2:c2:b5:8a:18:18:
                    9d:38:95:90:c0:4f:9b:42:07:9c:88:15:63:8c:62:
                    3a:16:6d:e5:33:b3:43:ed:0c:0a:c6:b0:2b:9d:4f:
                    95:cb:79:de:d5:db:28:a0:51:64:08:3c:4f:24:17:
                    a4:f7:c8:64:76:71:6a:e1:2c:ad:89:5a:4b:95:9e:
                    51:5c:9d:8a:cf:55:f4:78:27:4d:6c:7d:52:73:6d:
                    0e:c0:54:f6:97:27:5b:75:de:6e:87:3b:61:97:35:
                    f9:a5:b0:9a:48:61:7a:f9:5e:01:90:d2:46:c5:29:
                    0b:01:33:fd:2a:10:e9:c6:fb:15:13:38:71:f1:80:
                    22:77:a9:44:f6:60:9c:c0:32:a7:b3:b6:af:6d:80:
                    cc:c9:87
                Exponent: 65537 (0x10001)
    Signature Algorithm: sha256WithRSAEncryption
         89:29:6e:d5:1d:d7:5e:ce:fe:8e:a2:5c:0d:91:6e:7f:48:15:
         83:50:8c:35:3c:9b:d0:0f:5e:c2:22:c8:9a:ad:34:82:79:c7:
         a0:5d:8b:ca:ef:7d:48:0a:3d:89:a4:6c:21:9c:76:0c:52:4e:
         76:c6:ba:77:12:10:92:1b:00:89:aa:40:b8:00:8c:42:aa:31:
         9e:c2:85:83:00:3e:28:33:ea:7c:4a:40:65:f4:c0:a0:bc:09:
         81:fa:13:6e:f2:e0:12:4d:0d:e1:fd:31:80:14:49:c4:74:4a:
         e7:a7:34:3c:dc:5b:33:27:a2:f0:7a:79:7c:b7:d4:84:e0:d3:
         4c:02:fc:7c:82:c7:23:38:a3:0c:25:de:66:af:d2:f0:bc:2d:
         9c:b4:cf:e6:ab:6c:2f:e3:da:02:f1:07:b6:3c:9e:1b:d9:09:
         c3:12:8a:9c:30:07:9f:f8:3d:c4:a3:5f:ca:c1:46:2a:84:ea:
         3e:82:55:26:db:6f:37:6e:7b:48:5a:83:48:2a:eb:cb:d8:25:
         0b:c0:04:c5:39:c7:70:58:84:cc:74:77:dc:36:86:17:3c:d1:
         39:e9:9c:1c:2e:39:60:18:c5:3e:bd:28:03:4e:88:15:7e:3b:
         56:e8:d2:ea:5b:ea:af:6d:35:2b:8d:dc:fb:75:32:53:d8:7f:
         60:b7:cc:ae:21:ef:63:0e:4e:2c:b2:20:e6:09:c2:0f:32:59:
         59:3e:2f:f3:b7:c8:99:7f:02:b1:a6:7b:14:c8:3a:70:e9:9b:
         eb:d3:fc:7a:9e:4c:a1:90:38:d0:bf:fe:ef:be:ed:06:b0:98:
         9d:db:c9:15:cc:c2:d5:eb:bc:ea:68:e6:50:35:71:76:46:5d:
         67:41:b8:ea:b5:eb:be:36:c7:a3:37:b0:15:4d:7b:45:4b:0f:
         00:ac:d0:ab:77:1b:3a:6e:f8:42:9d:44:35:dc:4f:53:f4:54:
         b6:32:e4:d0:47:93:e1:4f:76:be:3e:66:31:d2:27:af:8c:bf:
         0b:6c:a3:27:ad:f3:ea:17:9c:af:89:e3:7d:e7:ed:46:9c:20:
         14:f4:fd:65:c8:c8:de:b8:c5:5d:73:75:b4:be:ec:99:6d:20:
         92:ff:35:ac:ee:4b:c3:2e:c4:4d:c4:55:68:e3:39:f0:75:aa:
         a0:ec:bd:25:fd:1b:61:68:3c:a2:71:d8:44:ab:b3:6c:d3:1f:
         cf:84:47:af:ac:53:33:0b:ee:86:ca:ea:bb:87:2c:bf:be:5a:
         67:b0:09:05:2a:88:3b:7e:91:30:7e:06:ac:9b:26:38:10:ef:
         a8:46:bf:c4:08:13:da:47:0f:49:72:08:ab:fe:0d:df:c0:56:
         e3:08:31:7f:a5:38:51:b7
-----BEGIN CERTIFICATE-----
MIIFRjCCAy4CASIwDQYJKoZIhvcNAQELBQAwdDELMAkGA1UEBhMCZnIxDDAKBgNV
BAgMA2lkZjEOMAwGA1UEBwwFcGFyaXMxEDAOBgNVBAoMB3ZpdGFtdWkxFDASBgNV
BAsMC2F1dGhvcml0aWVzMR8wHQYDVQQDDBZjYV9pbnRlcm1lZGlhdGVfc2VydmVy
MB4XDTIxMDUxNzEyMjQwMloXDTI0MDUxNjEyMjQwMlowXjELMAkGA1UEBhMCZnIx
DDAKBgNVBAgMA2lkZjEOMAwGA1UEBwwFcGFyaXMxEDAOBgNVBAoMB3ZpdGFtdWkx
HzAdBgNVBAMMFnNhbmRib3gyMy1hZG0uY2luZXMuZnIwggIiMA0GCSqGSIb3DQEB
AQUAA4ICDwAwggIKAoICAQCthsrHm0JJtQxwkjFActuVhVzk5YMDOUSdnp/zad1r
Mbjfkb/3joCRMEGUR3Sxgbnaoc2pAKAv6GbgFC6rqBNaV2rHup4Aex4rQpmJrT6n
6czWKPY8SuQEC9ecjA31waAlOsqVGX8sF+4QFY2WEauWxzxg6XPfCWvtc83APhbV
1dnPN2i5EMC4TN1sX5LR0bvvEt51MW5yIFqg3e9Y6z/qDgyE1hW4yJtbJHOQwVhd
5WUL2ttxd6B8qXDweqzCVhJV5k6rvs5qEbSTJMijIuDAXu+UkkHIDOCe/7a9SpdP
frKRtB9Ks2z1VP7MNMXU9xRHBXl4PLquoe7CK0+Ly9Kqzxmn2hlu/r0PcyuDsVM8
OWm8lo6Y8SghioA6+yWR8C25ezNJMUhDsWZaoQnU5cIYRpLZmp1HfgR3HxDoIkRt
R7BlBEzOaKADr4bSgPDoJraQL/s5U8uUaHqca35Vw+BP/+/5MPUsPQsX12oEGZz3
icLCtYoYGJ04lZDAT5tCB5yIFWOMYjoWbeUzs0PtDArGsCudT5XLed7V2yigUWQI
PE8kF6T3yGR2cWrhLK2JWkuVnlFcnYrPVfR4J01sfVJzbQ7AVPaXJ1t13m6HO2GX
NfmlsJpIYXr5XgGQ0kbFKQsBM/0qEOnG+xUTOHHxgCJ3qUT2YJzAMqeztq9tgMzJ
hwIDAQABMA0GCSqGSIb3DQEBCwUAA4ICAQCJKW7VHddezv6OolwNkW5/SBWDUIw1
PJvQD17CIsiarTSCecegXYvK731ICj2JpGwhnHYMUk52xrp3EhCSGwCJqkC4AIxC
qjGewoWDAD4oM+p8SkBl9MCgvAmB+hNu8uASTQ3h/TGAFEnEdErnpzQ83FszJ6Lw
enl8t9SE4NNMAvx8gscjOKMMJd5mr9LwvC2ctM/mq2wv49oC8Qe2PJ4b2QnDEoqc
MAef+D3Eo1/KwUYqhOo+glUm2283bntIWoNIKuvL2CULwATFOcdwWITMdHfcNoYX
PNE56ZwcLjlgGMU+vSgDTogVfjtW6NLqW+qvbTUrjdz7dTJT2H9gt8yuIe9jDk4s
siDmCcIPMllZPi/zt8iZfwKxpnsUyDpw6Zvr0/x6nkyhkDjQv/7vvu0GsJid28kV
zMLV67zqaOZQNXF2Rl1nQbjqteu+NsejN7AVTXtFSw8ArNCrdxs6bvhCnUQ13E9T
9FS2MuTQR5PhT3a+PmYx0ievjL8LbKMnrfPqF5yvieN95+1GnCAU9P1lyMjeuMVd
c3W0vuyZbSCS/zWs7kvDLsRNxFVo4znwdaqg7L0l/RthaDyicdhEq7Ns0x/PhEev
rFMzC+6Gyuq7hyy/vlpnsAkFKog7fpEwfgasmyY4EO+oRr/ECBPaRw9Jcgir/g3f
wFbjCDF/pThRtw==
-----END CERTIFICATE-----
