Certificate:
    Data:
        Version: 1 (0x0)
        Serial Number: 48 (0x30)
    Signature Algorithm: sha256WithRSAEncryption
        Issuer: C=fr, ST=idf, L=paris, O=vitamui, OU=authorities, CN=ca_intermediate_server
        Validity
            Not Before: May 17 12:25:45 2021 GMT
            Not After : May 16 12:25:45 2024 GMT
        Subject: C=fr, ST=idf, L=paris, O=vitamui, CN=sandbox23-adm.cines.fr
        Subject Public Key Info:
            Public Key Algorithm: rsaEncryption
                Public-Key: (4096 bit)
                Modulus:
                    00:cb:0d:57:54:44:26:03:23:75:79:b5:9f:79:d2:
                    13:7e:16:8e:cd:50:31:58:3a:70:d7:9f:37:15:f5:
                    8a:e7:f0:0f:13:6b:43:e6:71:20:81:23:1e:45:56:
                    80:6f:8e:0c:e5:97:a7:24:b4:48:23:d3:95:32:5d:
                    f4:97:3f:91:52:44:7e:d3:7e:1d:3a:a7:7e:48:ec:
                    a3:71:37:f3:ee:9d:07:d6:fb:18:58:b7:b0:8c:42:
                    70:dd:4a:3a:1f:a7:41:1c:b1:a9:81:15:f3:7e:ab:
                    01:13:50:49:4c:e2:73:64:54:ed:68:bc:5a:ee:bb:
                    e8:eb:46:03:9a:c6:90:b2:7f:d0:4f:e9:c9:41:02:
                    f8:1b:48:3a:34:88:c7:8b:54:60:07:67:6f:22:43:
                    3f:8c:2b:17:99:a1:0e:a1:96:83:e7:c0:13:66:20:
                    a0:00:38:21:5e:de:dd:36:a0:d3:8f:3e:8a:6c:eb:
                    a3:44:2f:c6:fd:a4:91:8d:24:c6:59:48:9f:70:3c:
                    72:84:65:a7:cf:c5:8d:d5:9d:62:72:a9:bd:78:61:
                    75:60:3b:42:8e:53:83:ff:ee:e5:78:d4:43:b2:ed:
                    b5:34:12:ea:8f:59:2e:eb:51:2b:6c:5a:6b:f5:23:
                    bc:9a:de:5c:b9:7d:fd:d9:0b:d9:a0:51:6f:3c:3b:
                    5e:ff:89:85:46:63:5a:97:af:b4:6f:5f:48:e3:e6:
                    1b:8e:94:f2:db:2d:60:8c:e1:be:1a:cb:ca:ed:b9:
                    75:bf:6e:3b:f5:1e:2e:31:d0:fd:25:fe:13:39:af:
                    24:84:ec:51:21:69:b1:d6:1a:40:32:31:d8:6b:52:
                    64:fc:22:7b:cf:4f:9c:f5:ef:97:ac:5a:40:d0:88:
                    ce:9f:d3:93:bb:49:35:f2:c0:2e:e3:af:2e:e6:85:
                    d2:db:f7:88:8f:aa:74:b8:13:ff:48:21:5d:c9:a2:
                    e0:d0:5e:65:e5:9e:eb:f8:7b:cb:8d:ff:22:67:f2:
                    b6:64:30:bd:5e:37:d3:22:c5:99:1f:71:27:25:b2:
                    64:31:dc:4f:d2:d9:27:90:11:f6:1e:e8:dc:d6:57:
                    c2:c2:c7:5b:1b:71:78:d4:95:ef:b5:be:a3:2f:0d:
                    b1:75:6d:84:f3:e6:18:e3:46:2f:cc:74:72:7e:1c:
                    3c:e3:dd:97:1b:a1:7c:0f:a5:6d:c0:91:01:a7:25:
                    05:7b:41:64:62:cf:f6:ff:d0:0f:e1:b5:da:07:6f:
                    9a:22:13:33:62:7c:9e:b6:48:79:18:0e:9a:9c:66:
                    69:35:cd:f3:11:3c:27:a8:55:9c:eb:fe:c2:01:76:
                    01:8f:9b:b6:a7:7d:24:1f:1b:bd:a6:54:6a:a2:ce:
                    a0:14:97
                Exponent: 65537 (0x10001)
    Signature Algorithm: sha256WithRSAEncryption
         3d:7a:0a:fe:d4:39:e0:93:54:82:8c:62:a1:db:10:71:1c:02:
         57:82:ea:4e:97:11:39:dc:6a:fa:ac:e7:af:5a:2a:58:a2:98:
         4f:4e:a2:7c:bb:91:3a:a3:86:46:be:5e:fe:7e:76:a8:1e:58:
         b8:5a:c8:c7:99:dc:4b:8b:84:49:1b:b3:e5:d0:33:02:06:34:
         9c:92:8b:9b:ea:07:a0:e3:bb:7f:9d:d9:7a:40:a1:0d:2a:49:
         44:b6:8e:26:84:fb:a2:1a:0d:a6:49:53:9f:11:90:c6:0d:0e:
         51:56:c8:af:31:b1:29:c4:04:9b:07:6c:26:9d:94:65:42:01:
         32:bb:6a:b3:04:a8:b6:5c:30:54:df:41:db:e0:ce:41:90:e9:
         00:46:64:6f:aa:ee:27:90:1b:44:d1:b6:ad:19:32:de:34:1e:
         0e:67:9e:86:a9:f9:42:e0:41:e4:1c:57:f5:5e:39:04:d6:37:
         49:0b:67:3b:24:97:90:61:1f:45:18:4a:dd:ab:f7:12:db:8c:
         f6:8d:eb:b7:7b:5f:9c:d4:5a:7c:0c:ae:8c:8e:6d:0a:3c:74:
         86:5a:4d:22:f1:20:76:31:24:1f:e7:9b:8a:4a:d1:d2:33:10:
         0d:4c:96:0d:8b:42:af:7f:36:b3:bb:33:87:1f:d7:9d:d0:4a:
         cf:4e:2e:8c:aa:da:79:80:27:87:df:2c:84:88:b8:1c:8a:37:
         27:37:d9:77:4b:b1:76:18:54:14:92:50:4e:78:4c:20:b5:c6:
         62:6e:c4:8d:53:3e:68:26:f8:aa:e5:5a:40:91:77:13:41:4a:
         cf:07:2d:37:89:19:c2:8c:ba:00:9d:3f:ba:e4:52:fb:de:9f:
         8c:5e:11:9d:5d:56:b1:d4:25:9f:fd:92:97:68:b2:e3:7a:f8:
         5d:05:eb:58:a3:b8:bb:e7:b8:c4:1e:ef:7f:01:c2:23:02:6d:
         8e:a3:a4:91:f8:39:c5:f0:f1:5b:60:67:75:ef:80:8a:67:d8:
         8f:60:5a:41:7a:9d:90:54:72:55:0a:58:dd:3c:84:5c:5e:6b:
         93:52:be:7a:f2:d7:d5:58:d2:1b:87:c2:2f:a2:4d:58:81:d2:
         e9:e4:3f:31:3b:73:54:a6:21:f2:f6:dc:c1:27:8e:94:a7:8e:
         d6:62:5e:1d:fa:e1:4f:41:74:67:ac:ac:09:e9:4d:de:18:bf:
         e5:e8:ed:f6:90:c6:d2:61:15:2a:7d:e4:9e:b9:ff:26:34:f0:
         e5:bd:4a:fc:88:e1:c8:40:a1:b5:bd:60:e5:15:03:0c:87:78:
         8f:15:c9:d1:6d:4f:ac:86:f2:b9:96:09:6f:b1:98:04:4a:c3:
         d4:0f:90:01:dc:53:49:67
-----BEGIN CERTIFICATE-----
MIIFRjCCAy4CATAwDQYJKoZIhvcNAQELBQAwdDELMAkGA1UEBhMCZnIxDDAKBgNV
BAgMA2lkZjEOMAwGA1UEBwwFcGFyaXMxEDAOBgNVBAoMB3ZpdGFtdWkxFDASBgNV
BAsMC2F1dGhvcml0aWVzMR8wHQYDVQQDDBZjYV9pbnRlcm1lZGlhdGVfc2VydmVy
MB4XDTIxMDUxNzEyMjU0NVoXDTI0MDUxNjEyMjU0NVowXjELMAkGA1UEBhMCZnIx
DDAKBgNVBAgMA2lkZjEOMAwGA1UEBwwFcGFyaXMxEDAOBgNVBAoMB3ZpdGFtdWkx
HzAdBgNVBAMMFnNhbmRib3gyMy1hZG0uY2luZXMuZnIwggIiMA0GCSqGSIb3DQEB
AQUAA4ICDwAwggIKAoICAQDLDVdURCYDI3V5tZ950hN+Fo7NUDFYOnDXnzcV9Yrn
8A8Ta0PmcSCBIx5FVoBvjgzll6cktEgj05UyXfSXP5FSRH7Tfh06p35I7KNxN/Pu
nQfW+xhYt7CMQnDdSjofp0EcsamBFfN+qwETUElM4nNkVO1ovFruu+jrRgOaxpCy
f9BP6clBAvgbSDo0iMeLVGAHZ28iQz+MKxeZoQ6hloPnwBNmIKAAOCFe3t02oNOP
Pops66NEL8b9pJGNJMZZSJ9wPHKEZafPxY3VnWJyqb14YXVgO0KOU4P/7uV41EOy
7bU0EuqPWS7rUStsWmv1I7ya3ly5ff3ZC9mgUW88O17/iYVGY1qXr7RvX0jj5huO
lPLbLWCM4b4ay8rtuXW/bjv1Hi4x0P0l/hM5rySE7FEhabHWGkAyMdhrUmT8InvP
T5z175esWkDQiM6f05O7STXywC7jry7mhdLb94iPqnS4E/9IIV3JouDQXmXlnuv4
e8uN/yJn8rZkML1eN9MixZkfcSclsmQx3E/S2SeQEfYe6NzWV8LCx1sbcXjUle+1
vqMvDbF1bYTz5hjjRi/MdHJ+HDzj3ZcboXwPpW3AkQGnJQV7QWRiz/b/0A/htdoH
b5oiEzNifJ62SHkYDpqcZmk1zfMRPCeoVZzr/sIBdgGPm7anfSQfG72mVGqizqAU
lwIDAQABMA0GCSqGSIb3DQEBCwUAA4ICAQA9egr+1Dngk1SCjGKh2xBxHAJXgupO
lxE53Gr6rOevWipYophPTqJ8u5E6o4ZGvl7+fnaoHli4WsjHmdxLi4RJG7Pl0DMC
BjSckoub6geg47t/ndl6QKENKklEto4mhPuiGg2mSVOfEZDGDQ5RVsivMbEpxASb
B2wmnZRlQgEyu2qzBKi2XDBU30Hb4M5BkOkARmRvqu4nkBtE0batGTLeNB4OZ56G
qflC4EHkHFf1XjkE1jdJC2c7JJeQYR9FGErdq/cS24z2jeu3e1+c1Fp8DK6Mjm0K
PHSGWk0i8SB2MSQf55uKStHSMxANTJYNi0KvfzazuzOHH9ed0ErPTi6Mqtp5gCeH
3yyEiLgcijcnN9l3S7F2GFQUklBOeEwgtcZibsSNUz5oJviq5VpAkXcTQUrPBy03
iRnCjLoAnT+65FL73p+MXhGdXVax1CWf/ZKXaLLjevhdBetYo7i757jEHu9/AcIj
Am2Oo6SR+DnF8PFbYGd174CKZ9iPYFpBep2QVHJVCljdPIRcXmuTUr568tfVWNIb
h8Ivok1YgdLp5D8xO3NUpiHy9tzBJ46Up47WYl4d+uFPQXRnrKwJ6U3eGL/l6O32
kMbSYRUqfeSeuf8mNPDlvUr8iOHIQKG1vWDlFQMMh3iPFcnRbU+shvK5lglvsZgE
SsPUD5AB3FNJZw==
-----END CERTIFICATE-----
