Certificate:
    Data:
        Version: 1 (0x0)
        Serial Number: 32 (0x20)
    Signature Algorithm: sha256WithRSAEncryption
        Issuer: C=fr, ST=idf, L=paris, O=vitamui, OU=authorities, CN=ca_intermediate_server
        Validity
            Not Before: May 17 12:23:51 2021 GMT
            Not After : May 16 12:23:51 2024 GMT
        Subject: C=fr, ST=idf, L=paris, O=vitamui, CN=sandbox23-adm.cines.fr
        Subject Public Key Info:
            Public Key Algorithm: rsaEncryption
                Public-Key: (4096 bit)
                Modulus:
                    00:96:b3:3f:eb:d5:53:d2:b5:ec:33:c8:47:ab:31:
                    c3:12:3d:f1:4a:c6:fb:2f:dc:c0:39:55:b8:ba:a8:
                    f3:08:77:ce:9d:d4:f0:14:da:b6:af:27:0b:1a:c0:
                    7c:de:d9:9f:30:e1:64:ef:cf:a8:14:7f:09:53:ab:
                    f2:08:f1:68:6a:e8:d7:1b:95:09:87:1f:6e:76:4a:
                    fb:4a:81:da:75:fb:62:d9:ab:62:5b:3b:e0:03:18:
                    b1:72:7e:d1:96:9a:a8:2c:2d:8a:46:65:e7:46:c6:
                    7c:b8:4e:e7:89:be:de:37:88:11:e9:0e:a6:54:5f:
                    3e:32:f6:60:70:79:60:6c:d9:9d:5b:a0:6c:c4:a2:
                    e4:42:a2:60:17:b0:cc:e8:71:f8:64:69:fb:c3:35:
                    28:1d:d0:5b:de:22:7d:21:6e:f8:f3:4f:f2:34:1b:
                    4d:8c:d2:e5:a1:b4:a9:62:3b:12:2a:e4:b1:e0:c1:
                    47:9d:89:10:87:c3:d4:e9:60:dc:0e:81:d5:85:b2:
                    80:cd:15:29:da:2a:d2:95:8b:d5:38:99:6f:41:03:
                    79:79:12:28:af:6a:5b:6f:5a:51:d8:f7:60:4e:07:
                    70:43:5b:1d:c9:cb:f3:ee:c4:e8:5c:ac:34:ac:ea:
                    84:6b:76:60:fc:cf:84:3c:a8:24:ac:53:01:60:43:
                    89:e1:3f:ef:b5:2e:9d:95:26:9f:e1:13:b6:04:a2:
                    25:32:bc:63:63:a9:9b:b1:0c:62:a0:78:f4:96:61:
                    9c:47:2f:00:5a:36:f1:07:25:30:80:43:bb:cd:34:
                    2b:b3:12:37:db:39:6d:ee:db:0e:7d:bf:80:09:fe:
                    26:50:1d:66:a8:a4:79:7d:4e:b2:f6:c4:b4:6b:90:
                    d4:62:47:01:5c:b0:b7:6e:a4:ae:1d:0d:28:e9:79:
                    45:cf:b7:73:55:a8:8f:3e:10:e7:35:4a:c9:09:bb:
                    83:e9:e9:5f:a3:1a:ac:e1:63:ef:27:dc:af:29:89:
                    87:f2:ae:3c:dd:4c:12:e6:77:99:50:bc:77:67:32:
                    cf:7f:68:5e:5b:80:4b:d9:c2:3a:8a:44:65:e1:62:
                    a0:92:87:38:53:48:1c:e4:75:7d:08:3c:23:9a:b8:
                    42:4f:2d:0f:e2:96:99:b5:12:d7:26:bf:de:99:6b:
                    d4:b5:a0:84:69:bb:74:a4:13:fd:30:a2:97:24:dc:
                    41:7a:37:7c:bf:61:67:3c:b7:fe:d4:e6:6d:36:1e:
                    72:9d:32:f0:23:9e:d2:34:eb:90:5b:66:95:71:62:
                    b7:3f:d1:6c:ed:fd:a9:1d:6b:39:ee:aa:cb:94:ac:
                    b0:95:3a:3a:dd:74:3f:98:36:62:27:cf:d1:6e:f5:
                    a9:c6:87
                Exponent: 65537 (0x10001)
    Signature Algorithm: sha256WithRSAEncryption
         99:04:4b:51:dd:3c:4d:e9:60:b8:5c:70:f8:de:77:45:b1:7d:
         22:5b:16:94:e0:76:ba:3d:2e:27:08:1e:c2:ac:7d:97:7b:b6:
         68:67:e8:bd:c5:e0:46:d4:0c:c2:ed:6f:15:57:4e:7c:ad:61:
         9b:3d:9a:a5:3f:34:e4:a0:77:d6:33:29:c3:f0:31:df:4e:ec:
         2e:ec:df:cc:f3:47:d2:dc:7f:84:f1:5d:71:5f:5a:0e:29:98:
         00:fd:d2:31:b1:dd:52:23:0e:c0:5b:76:e6:7f:cf:c6:4f:98:
         d0:5c:c5:5f:84:4f:9d:e9:4f:f9:0c:e3:53:1f:89:a7:ee:8c:
         7f:f1:c2:7d:a9:66:d5:28:1d:d0:1e:47:bc:ef:7a:4e:6f:31:
         38:0b:d1:87:c8:f7:cd:46:1e:8c:36:74:58:d0:7b:d9:eb:4e:
         bd:c6:f6:89:3d:6a:05:d6:35:30:2c:64:2b:7e:7b:24:cf:6d:
         6b:23:75:1a:da:25:a8:40:93:2f:e5:27:5f:1c:7d:bd:04:c3:
         1e:3b:55:40:ba:61:58:05:a0:87:3c:f1:8c:18:4f:b7:f9:99:
         2e:70:3a:86:51:a5:5c:13:35:5c:60:c8:f8:78:cf:38:44:71:
         e8:ec:b3:f3:c6:c9:6a:e7:33:f0:20:ee:6f:b4:49:09:f2:ca:
         a8:a3:d3:a6:1d:6c:6d:35:9a:0e:c3:52:95:e0:53:58:fa:d0:
         37:cf:31:29:64:34:92:b7:2a:1f:ce:36:66:e2:b3:4a:95:a4:
         bf:e6:f1:dc:d5:43:95:0d:65:45:61:22:96:26:57:4f:0e:88:
         25:9a:c3:35:53:b7:f8:3b:ba:17:63:a4:5c:73:de:e1:73:56:
         6c:a0:17:45:fa:8f:0f:fd:c3:8c:d3:1f:85:32:0e:97:63:14:
         58:c8:63:37:75:c6:b0:ec:ca:79:94:b2:31:6a:20:77:6e:40:
         ad:19:18:d5:7a:98:3a:6c:9a:3c:33:93:19:19:b1:f6:76:19:
         75:73:e2:8b:3e:e3:6b:5c:48:cf:36:eb:68:b7:f5:ee:31:63:
         55:0a:d2:23:5f:aa:f0:14:6e:44:34:c0:02:64:48:29:05:73:
         2f:8a:28:ef:b9:b2:c0:ce:75:2e:0e:d7:5c:42:4f:6c:e3:c9:
         75:b1:8f:ff:55:f7:d5:ab:bb:b5:33:11:21:15:d7:03:4e:61:
         91:90:52:a8:7e:fd:35:36:a0:a5:21:1f:f6:9a:68:56:9d:f3:
         79:74:b7:42:87:7d:7a:14:5a:c4:8b:be:66:ed:a6:a0:4f:e6:
         ec:23:be:94:07:a0:99:4e:94:90:1c:99:0a:37:64:5f:16:fc:
         ab:b4:52:dd:d6:ac:cd:2a
-----BEGIN CERTIFICATE-----
MIIFRjCCAy4CASAwDQYJKoZIhvcNAQELBQAwdDELMAkGA1UEBhMCZnIxDDAKBgNV
BAgMA2lkZjEOMAwGA1UEBwwFcGFyaXMxEDAOBgNVBAoMB3ZpdGFtdWkxFDASBgNV
BAsMC2F1dGhvcml0aWVzMR8wHQYDVQQDDBZjYV9pbnRlcm1lZGlhdGVfc2VydmVy
MB4XDTIxMDUxNzEyMjM1MVoXDTI0MDUxNjEyMjM1MVowXjELMAkGA1UEBhMCZnIx
DDAKBgNVBAgMA2lkZjEOMAwGA1UEBwwFcGFyaXMxEDAOBgNVBAoMB3ZpdGFtdWkx
HzAdBgNVBAMMFnNhbmRib3gyMy1hZG0uY2luZXMuZnIwggIiMA0GCSqGSIb3DQEB
AQUAA4ICDwAwggIKAoICAQCWsz/r1VPStewzyEerMcMSPfFKxvsv3MA5Vbi6qPMI
d86d1PAU2ravJwsawHze2Z8w4WTvz6gUfwlTq/II8Whq6NcblQmHH252SvtKgdp1
+2LZq2JbO+ADGLFyftGWmqgsLYpGZedGxny4TueJvt43iBHpDqZUXz4y9mBweWBs
2Z1boGzEouRComAXsMzocfhkafvDNSgd0FveIn0hbvjzT/I0G02M0uWhtKliOxIq
5LHgwUediRCHw9TpYNwOgdWFsoDNFSnaKtKVi9U4mW9BA3l5EiivaltvWlHY92BO
B3BDWx3Jy/PuxOhcrDSs6oRrdmD8z4Q8qCSsUwFgQ4nhP++1Lp2VJp/hE7YEoiUy
vGNjqZuxDGKgePSWYZxHLwBaNvEHJTCAQ7vNNCuzEjfbOW3u2w59v4AJ/iZQHWao
pHl9TrL2xLRrkNRiRwFcsLdupK4dDSjpeUXPt3NVqI8+EOc1SskJu4Pp6V+jGqzh
Y+8n3K8piYfyrjzdTBLmd5lQvHdnMs9/aF5bgEvZwjqKRGXhYqCShzhTSBzkdX0I
PCOauEJPLQ/ilpm1Etcmv96Za9S1oIRpu3SkE/0wopck3EF6N3y/YWc8t/7U5m02
HnKdMvAjntI065BbZpVxYrc/0Wzt/akdaznuqsuUrLCVOjrddD+YNmInz9Fu9anG
hwIDAQABMA0GCSqGSIb3DQEBCwUAA4ICAQCZBEtR3TxN6WC4XHD43ndFsX0iWxaU
4Ha6PS4nCB7CrH2Xe7ZoZ+i9xeBG1AzC7W8VV058rWGbPZqlPzTkoHfWMynD8DHf
Tuwu7N/M80fS3H+E8V1xX1oOKZgA/dIxsd1SIw7AW3bmf8/GT5jQXMVfhE+d6U/5
DONTH4mn7ox/8cJ9qWbVKB3QHke873pObzE4C9GHyPfNRh6MNnRY0HvZ6069xvaJ
PWoF1jUwLGQrfnskz21rI3Ua2iWoQJMv5SdfHH29BMMeO1VAumFYBaCHPPGMGE+3
+ZkucDqGUaVcEzVcYMj4eM84RHHo7LPzxslq5zPwIO5vtEkJ8sqoo9OmHWxtNZoO
w1KV4FNY+tA3zzEpZDSStyofzjZm4rNKlaS/5vHc1UOVDWVFYSKWJldPDoglmsM1
U7f4O7oXY6Rcc97hc1ZsoBdF+o8P/cOM0x+FMg6XYxRYyGM3dcaw7Mp5lLIxaiB3
bkCtGRjVepg6bJo8M5MZGbH2dhl1c+KLPuNrXEjPNutot/XuMWNVCtIjX6rwFG5E
NMACZEgpBXMviijvubLAznUuDtdcQk9s48l1sY//VffVq7u1MxEhFdcDTmGRkFKo
fv01NqClIR/2mmhWnfN5dLdCh316FFrEi75m7aagT+bsI76UB6CZTpSQHJkKN2Rf
FvyrtFLd1qzNKg==
-----END CERTIFICATE-----
