Certificate:
    Data:
        Version: 1 (0x0)
        Serial Number: 47 (0x2f)
    Signature Algorithm: sha256WithRSAEncryption
        Issuer: C=fr, ST=idf, L=paris, O=vitamui, OU=authorities, CN=ca_intermediate_server
        Validity
            Not Before: May 17 12:25:38 2021 GMT
            Not After : May 16 12:25:38 2024 GMT
        Subject: C=fr, ST=idf, L=paris, O=vitamui, CN=sandbox23-adm.cines.fr
        Subject Public Key Info:
            Public Key Algorithm: rsaEncryption
                Public-Key: (4096 bit)
                Modulus:
                    00:d2:f0:bb:8e:fa:3b:b9:c5:bc:1e:27:d9:69:a3:
                    8a:45:02:9c:96:e8:a1:35:c2:5a:9c:ef:95:7b:3a:
                    cc:bb:8e:ad:37:12:0e:b6:51:c8:8c:fb:0e:0b:70:
                    11:cf:71:35:22:96:0b:e2:42:53:7d:63:a7:6f:99:
                    e4:ae:3b:37:53:8d:89:87:0b:99:4c:b6:1a:d7:4e:
                    fb:16:98:01:e5:fe:06:c1:23:88:ac:30:fd:e2:78:
                    64:7b:74:2d:7a:90:75:3b:4d:5c:4d:0f:fc:ff:01:
                    eb:5f:04:11:e7:a4:ab:62:0c:ae:c2:b5:3c:42:a4:
                    fc:4f:8f:41:23:4b:22:f3:a4:fa:26:3d:8c:99:7a:
                    9f:d9:7d:a9:47:75:c6:44:c4:08:8b:6e:39:9a:c8:
                    8f:59:c6:e8:32:19:7a:04:16:36:57:8a:4a:1a:7b:
                    8c:25:e5:58:00:6c:4c:69:fb:af:92:c8:a3:c5:45:
                    af:9e:7f:b1:41:46:5c:d3:bb:b4:39:0d:2c:49:34:
                    56:43:ee:d5:fc:22:3f:2c:70:3b:bd:c5:c0:f6:aa:
                    3b:be:11:77:e6:92:b7:f9:0a:9e:f0:76:43:15:33:
                    da:3a:42:06:38:77:b3:c0:ec:ec:74:9b:5a:99:35:
                    1c:2c:2c:ba:89:60:ac:d9:fa:39:cf:26:c0:e3:3e:
                    fb:20:48:d3:d3:df:00:09:7b:83:49:62:ef:a3:e1:
                    81:3f:02:7a:1f:a4:15:72:79:5c:80:9c:fc:d1:72:
                    b9:5a:9b:6b:0f:5a:4b:ce:87:ec:06:cd:37:82:f9:
                    83:57:ba:1f:97:97:c2:dd:f3:ee:fd:e0:bd:96:02:
                    de:17:8d:ba:0c:69:b2:f4:2c:7b:42:f9:a9:ef:d2:
                    07:3f:2b:1e:03:80:b8:df:e8:75:43:8a:6f:45:5c:
                    23:c2:20:c6:1d:ad:68:84:95:ca:37:b1:77:3e:a5:
                    66:a7:4b:22:47:ed:b1:e7:cc:26:b0:e4:6c:81:bb:
                    bc:83:c6:d5:7f:07:2d:03:a4:b2:30:bd:7b:86:bc:
                    84:63:2b:c9:60:70:7c:e7:e8:cf:db:91:88:39:eb:
                    22:d1:2f:ba:08:fc:bb:07:f0:6d:c7:db:81:ef:1d:
                    fc:18:7d:4a:20:c9:92:9a:f1:7c:2c:c2:83:99:f8:
                    13:95:8d:24:48:f8:a0:64:7a:05:28:14:b0:9c:c3:
                    89:7e:17:7e:bc:79:36:8c:d2:f9:1b:db:39:a2:09:
                    ff:61:00:b1:5b:b2:e6:3f:41:a6:02:e0:33:ef:ac:
                    2d:aa:ed:71:0d:5b:72:68:35:24:7d:23:7a:09:01:
                    ec:d3:4f:da:f3:78:73:e1:82:6f:1c:4a:5b:36:65:
                    1b:aa:4b
                Exponent: 65537 (0x10001)
    Signature Algorithm: sha256WithRSAEncryption
         0a:4a:f2:f8:f6:6f:69:ba:cd:d4:e0:17:65:ad:80:f5:c1:8c:
         60:3e:29:d7:46:85:ea:bc:ec:3d:a9:d4:42:6e:98:c6:c3:44:
         c3:0e:e3:ed:4e:c5:bb:2c:75:f6:5f:0c:ae:dd:0b:72:f6:16:
         9b:6a:48:a1:bb:a1:e0:cd:3a:fa:d0:e9:e6:cf:5d:92:25:05:
         16:c5:27:0a:08:66:d5:be:12:12:42:07:8f:84:56:33:c9:3f:
         be:dd:f2:4f:73:56:5d:45:19:3a:c5:65:b4:a1:d0:fa:15:8c:
         a3:de:df:fc:b5:52:94:53:6d:a8:37:a0:bf:97:39:4a:1d:d8:
         26:4c:ec:67:5e:94:00:75:83:80:bf:d1:89:61:1c:47:45:fa:
         91:da:08:03:e4:ec:d9:3c:0d:4c:34:14:24:95:01:f7:60:a2:
         25:18:63:8d:be:bc:7a:1e:e9:ca:83:fa:34:22:8c:9a:ca:85:
         89:74:4b:d3:a6:cc:b0:37:fd:2c:d7:3d:6e:11:cd:aa:8d:39:
         ce:3a:a2:54:72:84:93:2a:1c:7b:94:43:d0:2b:c9:ad:41:3d:
         07:4f:3a:a4:2e:83:8d:23:7a:8b:f0:c9:4f:73:6e:53:f9:ed:
         e4:da:4e:d0:a4:04:48:91:bc:0e:5a:06:7f:a4:3f:7e:92:c6:
         6a:50:d5:eb:f0:cb:94:90:bb:a0:14:67:d8:14:6c:60:75:38:
         47:24:bb:2d:16:ce:ce:35:b6:16:04:c6:e1:a3:96:4f:49:d2:
         17:13:25:5b:7a:e6:3a:28:6c:d6:2d:a0:c6:dd:57:12:d4:1a:
         53:14:c1:fe:3a:0a:d0:ab:1f:5a:b6:5a:d5:05:d5:28:a3:15:
         c1:1a:65:12:1d:7b:9f:0a:12:a8:c8:9a:5d:b4:65:fb:48:45:
         7e:a1:2f:f1:55:9e:3a:01:0e:91:3d:b6:12:5e:81:90:cd:39:
         a8:16:0e:c6:18:92:cd:24:35:3a:e4:92:28:a7:67:5e:e7:a5:
         50:1d:af:50:0b:81:62:28:bb:6f:1e:52:d5:6b:3a:d8:39:3b:
         2e:da:e7:ae:23:8f:34:59:f1:66:dd:a3:20:8a:21:ab:8b:07:
         b6:59:4d:12:f8:3a:c4:6b:2e:59:6d:71:b3:5f:6f:cb:47:5c:
         f6:54:97:94:8f:c2:dc:59:15:a8:01:32:82:85:74:db:f4:27:
         0e:80:11:88:80:3f:6f:1a:c7:39:a0:01:42:ca:9c:95:00:4d:
         11:50:d1:b7:4b:4d:00:6e:ba:9f:3f:9f:9a:5a:57:8d:7e:0e:
         3c:a9:9b:32:ca:76:05:61:a7:02:56:dc:06:2f:d5:97:5f:55:
         11:76:ad:0b:27:9a:a3:1d
-----BEGIN CERTIFICATE-----
MIIFRjCCAy4CAS8wDQYJKoZIhvcNAQELBQAwdDELMAkGA1UEBhMCZnIxDDAKBgNV
BAgMA2lkZjEOMAwGA1UEBwwFcGFyaXMxEDAOBgNVBAoMB3ZpdGFtdWkxFDASBgNV
BAsMC2F1dGhvcml0aWVzMR8wHQYDVQQDDBZjYV9pbnRlcm1lZGlhdGVfc2VydmVy
MB4XDTIxMDUxNzEyMjUzOFoXDTI0MDUxNjEyMjUzOFowXjELMAkGA1UEBhMCZnIx
DDAKBgNVBAgMA2lkZjEOMAwGA1UEBwwFcGFyaXMxEDAOBgNVBAoMB3ZpdGFtdWkx
HzAdBgNVBAMMFnNhbmRib3gyMy1hZG0uY2luZXMuZnIwggIiMA0GCSqGSIb3DQEB
AQUAA4ICDwAwggIKAoICAQDS8LuO+ju5xbweJ9lpo4pFApyW6KE1wlqc75V7Osy7
jq03Eg62UciM+w4LcBHPcTUilgviQlN9Y6dvmeSuOzdTjYmHC5lMthrXTvsWmAHl
/gbBI4isMP3ieGR7dC16kHU7TVxND/z/AetfBBHnpKtiDK7CtTxCpPxPj0EjSyLz
pPomPYyZep/ZfalHdcZExAiLbjmayI9ZxugyGXoEFjZXikoae4wl5VgAbExp+6+S
yKPFRa+ef7FBRlzTu7Q5DSxJNFZD7tX8Ij8scDu9xcD2qju+EXfmkrf5Cp7wdkMV
M9o6QgY4d7PA7Ox0m1qZNRwsLLqJYKzZ+jnPJsDjPvsgSNPT3wAJe4NJYu+j4YE/
AnofpBVyeVyAnPzRcrlam2sPWkvOh+wGzTeC+YNXuh+Xl8Ld8+794L2WAt4XjboM
abL0LHtC+anv0gc/Kx4DgLjf6HVDim9FXCPCIMYdrWiElco3sXc+pWanSyJH7bHn
zCaw5GyBu7yDxtV/By0DpLIwvXuGvIRjK8lgcHzn6M/bkYg56yLRL7oI/LsH8G3H
24HvHfwYfUogyZKa8XwswoOZ+BOVjSRI+KBkegUoFLCcw4l+F368eTaM0vkb2zmi
Cf9hALFbsuY/QaYC4DPvrC2q7XENW3JoNSR9I3oJAezTT9rzeHPhgm8cSls2ZRuq
SwIDAQABMA0GCSqGSIb3DQEBCwUAA4ICAQAKSvL49m9pus3U4BdlrYD1wYxgPinX
RoXqvOw9qdRCbpjGw0TDDuPtTsW7LHX2Xwyu3Qty9habakihu6HgzTr60Onmz12S
JQUWxScKCGbVvhISQgePhFYzyT++3fJPc1ZdRRk6xWW0odD6FYyj3t/8tVKUU22o
N6C/lzlKHdgmTOxnXpQAdYOAv9GJYRxHRfqR2ggD5OzZPA1MNBQklQH3YKIlGGON
vrx6HunKg/o0IoyayoWJdEvTpsywN/0s1z1uEc2qjTnOOqJUcoSTKhx7lEPQK8mt
QT0HTzqkLoONI3qL8MlPc25T+e3k2k7QpARIkbwOWgZ/pD9+ksZqUNXr8MuUkLug
FGfYFGxgdThHJLstFs7ONbYWBMbho5ZPSdIXEyVbeuY6KGzWLaDG3VcS1BpTFMH+
OgrQqx9atlrVBdUooxXBGmUSHXufChKoyJpdtGX7SEV+oS/xVZ46AQ6RPbYSXoGQ
zTmoFg7GGJLNJDU65JIop2de56VQHa9QC4FiKLtvHlLVazrYOTsu2ueuI480WfFm
3aMgiiGriwe2WU0S+DrEay5ZbXGzX2/LR1z2VJeUj8LcWRWoATKChXTb9CcOgBGI
gD9vGsc5oAFCypyVAE0RUNG3S00AbrqfP5+aWleNfg48qZsyynYFYacCVtwGL9WX
X1URdq0LJ5qjHQ==
-----END CERTIFICATE-----
