Certificate:
    Data:
        Version: 1 (0x0)
        Serial Number: 43 (0x2b)
    Signature Algorithm: sha256WithRSAEncryption
        Issuer: C=fr, ST=idf, L=paris, O=vitamui, OU=authorities, CN=ca_intermediate_server
        Validity
            Not Before: May 17 12:25:08 2021 GMT
            Not After : May 16 12:25:08 2024 GMT
        Subject: C=fr, ST=idf, L=paris, O=vitamui, CN=sandbox23-adm.cines.fr
        Subject Public Key Info:
            Public Key Algorithm: rsaEncryption
                Public-Key: (4096 bit)
                Modulus:
                    00:c3:e7:17:c2:ad:b3:bc:c6:a3:a3:0e:d5:da:15:
                    39:2a:83:b9:30:3d:56:7c:70:ca:16:ef:fe:9e:84:
                    73:af:67:22:8d:b8:05:5e:9d:8c:d3:d6:ef:80:7d:
                    56:9e:fa:0c:6b:1a:b5:94:7c:fd:eb:9d:64:65:33:
                    64:cc:0d:9f:b1:b3:b2:fa:39:0e:2d:5b:1a:fa:18:
                    31:11:5a:e0:24:e8:b6:3d:02:5c:a4:bd:72:f9:81:
                    88:57:ee:33:40:c5:0f:54:6d:3f:78:27:32:bf:f0:
                    8c:4f:e8:51:4b:76:ae:44:f1:c8:30:1d:c4:55:57:
                    ef:61:42:18:73:3a:47:02:84:7e:11:5a:aa:a7:9e:
                    d7:a8:30:df:07:9b:59:e2:ef:e8:ec:d8:c2:72:54:
                    24:a1:7c:69:2f:b5:1e:77:1e:f6:e7:3a:29:9f:0b:
                    78:d5:b1:ff:7b:7e:eb:9b:0f:68:df:25:81:56:68:
                    18:9f:fc:f8:6d:14:ee:77:99:ea:6d:f9:0b:fe:81:
                    af:19:cc:24:91:07:97:09:9f:77:f6:40:ea:62:ed:
                    d2:86:93:39:37:81:d4:c4:5c:e6:95:6e:a9:28:22:
                    56:38:f5:f1:6c:4b:3b:95:77:ac:e1:84:61:70:0a:
                    ab:47:01:4d:eb:88:f6:e5:15:fc:8b:ea:37:85:90:
                    e5:f7:35:12:29:20:5b:7c:95:06:70:69:ed:36:70:
                    25:4c:00:bc:21:fc:dd:04:78:b0:8a:65:4b:f0:da:
                    71:8a:0e:23:29:09:75:2a:3d:a7:ae:18:08:c5:88:
                    a3:bc:7c:d7:b1:e0:8f:cd:67:bd:53:fd:e5:ef:a8:
                    03:7e:c1:40:bc:bd:88:fb:45:8d:3a:2f:ec:86:71:
                    75:32:16:52:f3:2f:30:ab:1d:b1:96:bb:77:3b:b6:
                    6c:25:88:e4:11:a3:92:6f:bd:dd:b8:eb:f1:2d:79:
                    42:2c:d7:67:fa:ce:ce:4d:56:87:c6:57:19:12:e2:
                    da:0a:2c:97:10:5e:cf:14:ca:6a:5d:34:1e:08:81:
                    b2:cf:1c:b4:73:7e:00:37:21:0c:a7:8f:6c:fc:f1:
                    ed:d6:f3:e8:72:d2:c2:b2:f2:be:7c:64:ef:45:f8:
                    80:6b:24:5e:ee:54:8f:b9:8e:63:46:0a:aa:fd:29:
                    57:92:cb:d3:bd:99:20:59:74:90:15:fc:d8:ef:53:
                    a3:0c:27:94:de:90:b2:c9:c5:0d:85:07:f2:e4:1d:
                    8c:4c:73:64:33:df:0a:83:fb:76:30:73:4d:56:ee:
                    45:b7:29:46:ac:4a:74:af:d1:1a:63:e4:49:c7:21:
                    68:a3:c7:67:c1:d5:ff:c0:6f:bb:00:76:4f:bf:0e:
                    aa:3e:35
                Exponent: 65537 (0x10001)
    Signature Algorithm: sha256WithRSAEncryption
         3b:61:4d:de:f2:c6:8a:07:d4:9e:04:62:f3:36:06:37:79:e0:
         ee:41:27:be:5e:55:fa:03:f3:12:d6:7e:df:51:75:1d:e9:c3:
         d2:9f:78:37:2c:1e:f2:1b:04:dc:a8:85:27:ac:83:9d:20:da:
         57:07:b8:c4:b3:08:1c:e4:ce:1d:14:50:68:aa:7e:84:57:e5:
         7b:55:75:09:0d:83:2c:da:61:09:8d:a9:3c:fa:76:60:63:24:
         0f:45:1a:bf:87:60:42:de:04:1a:a0:f1:ac:fb:cf:d6:1a:59:
         d5:05:26:ae:bf:da:96:01:0e:45:04:0c:f0:8a:58:53:66:77:
         dd:e9:74:6d:be:8c:91:ca:7c:9f:2b:ad:44:f4:28:16:44:b3:
         82:e6:c6:5d:c0:f0:02:e4:91:66:a6:08:6e:65:5a:e2:4f:c3:
         76:7c:1f:bb:73:76:8a:3a:0a:0b:bc:b8:a5:fb:66:3a:ce:98:
         fe:f5:1d:52:cb:4c:27:5b:70:c5:f7:30:7c:03:fd:31:a6:06:
         47:c5:f9:b9:9e:14:96:ad:85:f9:5a:3f:1f:16:07:6a:11:20:
         28:48:1b:20:cf:53:a1:93:8c:56:65:cf:c4:05:6c:d8:b8:ae:
         57:6b:9c:39:1a:dd:05:df:5a:c5:51:49:de:b6:42:aa:eb:ef:
         d6:2e:b6:b1:80:01:24:c8:19:91:aa:93:e6:ee:16:08:e0:9e:
         f6:86:1b:11:5b:d1:a9:49:a4:44:94:84:d2:bd:35:4c:c1:40:
         b5:17:67:2e:bf:13:c7:a0:0c:9a:48:d8:2a:05:ee:6a:2b:13:
         8d:6c:b7:c0:1c:18:8b:da:da:b4:ed:06:c2:e7:31:42:f8:89:
         d9:5b:94:12:be:8f:2c:99:99:42:78:e0:cc:8e:5a:c2:36:d2:
         26:b2:15:c5:87:69:42:58:cf:8a:d4:29:26:94:71:38:14:62:
         f6:f2:67:75:0b:d7:87:98:2e:d9:b9:e9:d8:8f:b6:cf:93:02:
         78:36:91:e4:fc:13:ba:70:e9:37:82:04:aa:62:88:49:f6:62:
         1e:a9:d2:f5:90:7c:cd:1d:d5:c9:81:64:0a:98:26:e5:2f:99:
         06:41:4f:f7:84:2a:0c:9d:e3:61:d1:0e:00:79:c7:0d:72:d0:
         d9:81:d2:4c:4e:e5:a3:af:e5:55:d4:59:de:85:f7:5a:6c:09:
         a3:2a:ad:3b:4d:ba:15:9c:0c:3c:94:05:e1:56:a0:8c:10:6a:
         93:55:86:fd:8d:dc:ea:dc:67:7d:44:af:37:d4:4d:1e:03:4b:
         e5:d0:de:f5:17:8b:0b:3f:4d:d1:9e:b1:5f:75:99:ef:11:48:
         57:cd:a3:17:f0:30:d7:35
-----BEGIN CERTIFICATE-----
MIIFRjCCAy4CASswDQYJKoZIhvcNAQELBQAwdDELMAkGA1UEBhMCZnIxDDAKBgNV
BAgMA2lkZjEOMAwGA1UEBwwFcGFyaXMxEDAOBgNVBAoMB3ZpdGFtdWkxFDASBgNV
BAsMC2F1dGhvcml0aWVzMR8wHQYDVQQDDBZjYV9pbnRlcm1lZGlhdGVfc2VydmVy
MB4XDTIxMDUxNzEyMjUwOFoXDTI0MDUxNjEyMjUwOFowXjELMAkGA1UEBhMCZnIx
DDAKBgNVBAgMA2lkZjEOMAwGA1UEBwwFcGFyaXMxEDAOBgNVBAoMB3ZpdGFtdWkx
HzAdBgNVBAMMFnNhbmRib3gyMy1hZG0uY2luZXMuZnIwggIiMA0GCSqGSIb3DQEB
AQUAA4ICDwAwggIKAoICAQDD5xfCrbO8xqOjDtXaFTkqg7kwPVZ8cMoW7/6ehHOv
ZyKNuAVenYzT1u+AfVae+gxrGrWUfP3rnWRlM2TMDZ+xs7L6OQ4tWxr6GDERWuAk
6LY9AlykvXL5gYhX7jNAxQ9UbT94JzK/8IxP6FFLdq5E8cgwHcRVV+9hQhhzOkcC
hH4RWqqnnteoMN8Hm1ni7+js2MJyVCShfGkvtR53HvbnOimfC3jVsf97fuubD2jf
JYFWaBif/PhtFO53mept+Qv+ga8ZzCSRB5cJn3f2QOpi7dKGkzk3gdTEXOaVbqko
IlY49fFsSzuVd6zhhGFwCqtHAU3riPblFfyL6jeFkOX3NRIpIFt8lQZwae02cCVM
ALwh/N0EeLCKZUvw2nGKDiMpCXUqPaeuGAjFiKO8fNex4I/NZ71T/eXvqAN+wUC8
vYj7RY06L+yGcXUyFlLzLzCrHbGWu3c7tmwliOQRo5Jvvd246/EteUIs12f6zs5N
VofGVxkS4toKLJcQXs8UympdNB4IgbLPHLRzfgA3IQynj2z88e3W8+hy0sKy8r58
ZO9F+IBrJF7uVI+5jmNGCqr9KVeSy9O9mSBZdJAV/NjvU6MMJ5TekLLJxQ2FB/Lk
HYxMc2Qz3wqD+3Ywc01W7kW3KUasSnSv0Rpj5EnHIWijx2fB1f/Ab7sAdk+/Dqo+
NQIDAQABMA0GCSqGSIb3DQEBCwUAA4ICAQA7YU3e8saKB9SeBGLzNgY3eeDuQSe+
XlX6A/MS1n7fUXUd6cPSn3g3LB7yGwTcqIUnrIOdINpXB7jEswgc5M4dFFBoqn6E
V+V7VXUJDYMs2mEJjak8+nZgYyQPRRq/h2BC3gQaoPGs+8/WGlnVBSauv9qWAQ5F
BAzwilhTZnfd6XRtvoyRynyfK61E9CgWRLOC5sZdwPAC5JFmpghuZVriT8N2fB+7
c3aKOgoLvLil+2Y6zpj+9R1Sy0wnW3DF9zB8A/0xpgZHxfm5nhSWrYX5Wj8fFgdq
ESAoSBsgz1Ohk4xWZc/EBWzYuK5Xa5w5Gt0F31rFUUnetkKq6+/WLraxgAEkyBmR
qpPm7hYI4J72hhsRW9GpSaRElITSvTVMwUC1F2cuvxPHoAyaSNgqBe5qKxONbLfA
HBiL2tq07QbC5zFC+InZW5QSvo8smZlCeODMjlrCNtImshXFh2lCWM+K1CkmlHE4
FGL28md1C9eHmC7ZuenYj7bPkwJ4NpHk/BO6cOk3ggSqYohJ9mIeqdL1kHzNHdXJ
gWQKmCblL5kGQU/3hCoMneNh0Q4AeccNctDZgdJMTuWjr+VV1FnehfdabAmjKq07
TboVnAw8lAXhVqCMEGqTVYb9jdzq3Gd9RK831E0eA0vl0N71F4sLP03RnrFfdZnv
EUhXzaMX8DDXNQ==
-----END CERTIFICATE-----
