Certificate:
    Data:
        Version: 1 (0x0)
        Serial Number: 46 (0x2e)
    Signature Algorithm: sha256WithRSAEncryption
        Issuer: C=fr, ST=idf, L=paris, O=vitamui, OU=authorities, CN=ca_intermediate_server
        Validity
            Not Before: May 17 12:25:30 2021 GMT
            Not After : May 16 12:25:30 2024 GMT
        Subject: C=fr, ST=idf, L=paris, O=vitamui, CN=sandbox23-adm.cines.fr
        Subject Public Key Info:
            Public Key Algorithm: rsaEncryption
                Public-Key: (4096 bit)
                Modulus:
                    00:c1:ed:78:61:c8:c0:07:95:8d:61:17:7e:89:3c:
                    7d:9b:c4:8e:cd:b9:ef:dc:6a:a6:b9:47:77:16:e3:
                    a4:a6:e5:4c:13:06:c3:46:8f:c3:9c:c8:42:cc:22:
                    ca:a4:b3:6d:ba:98:9b:63:2c:52:20:d0:09:42:9b:
                    3f:68:ff:d9:28:8a:a8:da:91:83:a7:17:ca:be:8a:
                    56:8a:29:18:ee:b4:45:8d:5b:c6:14:ff:cb:87:71:
                    be:c4:8d:54:31:ba:0b:4d:06:09:85:a4:48:d9:28:
                    c3:4e:a3:d5:35:03:b9:5f:0a:ca:f1:0b:e8:56:37:
                    62:92:73:87:e7:cf:82:4c:4e:78:00:58:33:ba:b7:
                    19:bd:a7:a6:84:f0:02:54:0c:f0:6c:7c:4f:33:ea:
                    f8:80:9c:93:8e:2b:ee:36:07:e4:89:f6:da:b7:c6:
                    a9:4b:66:81:1f:6b:39:06:5a:10:92:ab:c8:b6:9c:
                    a0:78:fd:19:1d:96:c5:2a:c2:43:cb:94:6f:17:31:
                    0e:c5:34:6e:2c:24:83:6b:71:79:1e:f1:99:a5:79:
                    e0:32:d7:57:ee:f1:ce:8b:8c:3b:af:36:cc:2e:90:
                    7e:8b:d9:85:a2:0a:f8:13:0c:64:16:ef:00:69:96:
                    8d:cf:56:54:e5:1b:ef:a2:73:01:e4:72:91:3c:7d:
                    4c:ab:c1:a1:8b:28:af:8e:d2:5e:29:0b:ee:79:28:
                    8e:47:a3:73:a1:20:65:28:c2:66:72:06:69:5d:df:
                    67:a8:3f:53:a8:2e:29:5d:d7:4b:1a:3d:a5:c2:33:
                    b7:5b:c7:b0:1a:4e:a5:67:ef:43:3a:14:84:7e:03:
                    50:dc:d2:01:3b:04:d3:90:61:16:38:7c:3e:23:e6:
                    19:2c:d3:63:6e:50:b7:21:46:1e:cf:8b:76:8d:28:
                    7a:e0:97:6c:65:17:38:1f:e8:35:45:55:5c:4e:57:
                    0f:0d:a2:ee:91:2f:44:a4:ab:56:8a:44:32:7f:33:
                    f3:43:d3:f8:62:6c:2c:52:1d:e4:02:cd:32:a4:71:
                    63:a5:dd:49:a1:82:d9:43:eb:b6:4e:b0:4a:4b:0d:
                    a3:13:ab:d0:1b:d3:9d:05:b7:64:9a:7b:be:c7:5e:
                    b8:f3:ca:b7:75:ec:19:e8:3a:05:ad:f8:15:a4:a3:
                    1c:0e:5c:e7:dd:09:01:84:ee:13:8e:ba:6e:56:65:
                    cd:4b:79:e6:01:2e:4e:99:e7:ae:56:ea:07:cd:56:
                    ae:ee:97:df:4e:23:cf:2d:f2:89:d9:66:7c:c4:31:
                    3a:69:b7:95:60:1b:fa:46:ec:f7:1e:59:e5:99:92:
                    d2:69:22:28:08:7e:c4:5c:dd:e2:63:88:3d:18:b8:
                    81:4a:4b
                Exponent: 65537 (0x10001)
    Signature Algorithm: sha256WithRSAEncryption
         91:57:08:51:b9:2b:46:3f:38:c5:40:27:86:cb:d7:10:72:d3:
         89:8a:59:f5:4b:09:aa:97:39:89:d9:38:93:35:34:19:d4:de:
         90:98:57:a3:88:dd:76:2f:72:52:e7:b3:09:12:e8:62:6c:9b:
         51:dc:5c:2a:87:a7:29:81:ed:fb:b3:52:0e:5f:98:75:4e:ac:
         01:ce:a2:e8:8f:f6:d0:1d:5a:a6:b5:a8:89:9a:39:29:7e:4f:
         c0:1e:de:b9:ad:be:ca:10:6d:0a:10:e6:ee:8f:b9:4b:2a:e3:
         ae:09:00:d7:11:80:b4:a2:cc:f7:a9:87:01:9f:6e:df:c6:ca:
         91:f0:41:7e:5e:c5:df:ba:bc:71:79:d4:1b:ae:7f:0b:11:75:
         c5:b4:1f:0e:6d:92:f0:39:be:79:0a:eb:17:e5:1f:89:7d:2e:
         c8:49:06:a3:88:37:5b:96:b5:d5:c7:34:42:2a:10:08:58:db:
         66:79:67:50:5f:86:b1:cb:de:04:f0:f9:27:c6:31:5f:46:98:
         d3:cf:0a:f1:3d:b6:fa:e1:14:13:9c:46:fc:50:31:e4:b8:30:
         82:88:e1:0a:62:d6:a6:85:dc:27:7b:4d:fc:13:31:07:d1:5c:
         fd:f9:da:46:f5:ab:e5:13:4d:79:2c:fa:7e:bc:8d:77:fe:4f:
         bd:16:2f:47:62:7a:21:83:97:90:8b:07:f2:5c:86:b6:04:ef:
         b3:f5:81:22:1e:45:a2:83:93:fe:ff:d9:a5:f6:b2:bf:55:7a:
         83:e3:9d:66:44:06:68:cf:da:3d:4e:34:c5:21:ce:4f:1c:2c:
         24:d0:ff:f0:2a:13:4c:1a:bd:95:01:13:a9:fb:86:af:87:84:
         6e:88:78:26:54:b1:13:fb:4c:22:ca:5e:5e:57:8b:09:ad:95:
         1e:09:66:1e:1a:65:94:5d:fa:e0:c6:bf:a0:c7:c3:e3:11:4f:
         e5:f2:14:18:9d:f5:ee:3d:b7:9b:46:c3:f7:44:4c:41:e7:43:
         02:34:a7:b7:db:94:48:e9:b1:1a:77:c4:fa:2b:ed:2e:7d:e6:
         0b:f4:65:db:2e:74:11:cd:52:7a:6a:77:51:0f:f8:23:da:2f:
         c7:05:13:72:32:a6:ac:b8:b5:ea:fc:96:ae:14:51:3f:2f:df:
         b3:c4:7a:cc:07:ac:1e:8a:34:8b:4b:38:42:d6:46:fe:0e:19:
         d8:88:6f:ef:4c:16:75:d9:80:17:56:83:61:6e:e1:0e:28:27:
         c4:ff:45:e1:ad:6b:3e:16:7e:8c:de:06:1d:34:5e:0f:03:69:
         11:09:4b:f8:fd:71:2e:4f:4a:d4:8c:75:b4:4c:86:af:38:9e:
         c8:21:08:80:86:08:e6:24
-----BEGIN CERTIFICATE-----
MIIFRjCCAy4CAS4wDQYJKoZIhvcNAQELBQAwdDELMAkGA1UEBhMCZnIxDDAKBgNV
BAgMA2lkZjEOMAwGA1UEBwwFcGFyaXMxEDAOBgNVBAoMB3ZpdGFtdWkxFDASBgNV
BAsMC2F1dGhvcml0aWVzMR8wHQYDVQQDDBZjYV9pbnRlcm1lZGlhdGVfc2VydmVy
MB4XDTIxMDUxNzEyMjUzMFoXDTI0MDUxNjEyMjUzMFowXjELMAkGA1UEBhMCZnIx
DDAKBgNVBAgMA2lkZjEOMAwGA1UEBwwFcGFyaXMxEDAOBgNVBAoMB3ZpdGFtdWkx
HzAdBgNVBAMMFnNhbmRib3gyMy1hZG0uY2luZXMuZnIwggIiMA0GCSqGSIb3DQEB
AQUAA4ICDwAwggIKAoICAQDB7XhhyMAHlY1hF36JPH2bxI7Nue/caqa5R3cW46Sm
5UwTBsNGj8OcyELMIsqks226mJtjLFIg0AlCmz9o/9koiqjakYOnF8q+ilaKKRju
tEWNW8YU/8uHcb7EjVQxugtNBgmFpEjZKMNOo9U1A7lfCsrxC+hWN2KSc4fnz4JM
TngAWDO6txm9p6aE8AJUDPBsfE8z6viAnJOOK+42B+SJ9tq3xqlLZoEfazkGWhCS
q8i2nKB4/RkdlsUqwkPLlG8XMQ7FNG4sJINrcXke8ZmleeAy11fu8c6LjDuvNswu
kH6L2YWiCvgTDGQW7wBplo3PVlTlG++icwHkcpE8fUyrwaGLKK+O0l4pC+55KI5H
o3OhIGUowmZyBmld32eoP1OoLild10saPaXCM7dbx7AaTqVn70M6FIR+A1Dc0gE7
BNOQYRY4fD4j5hks02NuULchRh7Pi3aNKHrgl2xlFzgf6DVFVVxOVw8Nou6RL0Sk
q1aKRDJ/M/ND0/hibCxSHeQCzTKkcWOl3UmhgtlD67ZOsEpLDaMTq9Ab050Ft2Sa
e77HXrjzyrd17BnoOgWt+BWkoxwOXOfdCQGE7hOOum5WZc1LeeYBLk6Z565W6gfN
Vq7ul99OI88t8onZZnzEMTppt5VgG/pG7PceWeWZktJpIigIfsRc3eJjiD0YuIFK
SwIDAQABMA0GCSqGSIb3DQEBCwUAA4ICAQCRVwhRuStGPzjFQCeGy9cQctOJiln1
SwmqlzmJ2TiTNTQZ1N6QmFejiN12L3JS57MJEuhibJtR3Fwqh6cpge37s1IOX5h1
TqwBzqLoj/bQHVqmtaiJmjkpfk/AHt65rb7KEG0KEObuj7lLKuOuCQDXEYC0osz3
qYcBn27fxsqR8EF+XsXfurxxedQbrn8LEXXFtB8ObZLwOb55CusX5R+JfS7ISQaj
iDdblrXVxzRCKhAIWNtmeWdQX4axy94E8PknxjFfRpjTzwrxPbb64RQTnEb8UDHk
uDCCiOEKYtamhdwne038EzEH0Vz9+dpG9avlE015LPp+vI13/k+9Fi9HYnohg5eQ
iwfyXIa2BO+z9YEiHkWig5P+/9ml9rK/VXqD451mRAZoz9o9TjTFIc5PHCwk0P/w
KhNMGr2VAROp+4avh4RuiHgmVLET+0wiyl5eV4sJrZUeCWYeGmWUXfrgxr+gx8Pj
EU/l8hQYnfXuPbebRsP3RExB50MCNKe325RI6bEad8T6K+0ufeYL9GXbLnQRzVJ6
andRD/gj2i/HBRNyMqasuLXq/JauFFE/L9+zxHrMB6weijSLSzhC1kb+DhnYiG/v
TBZ12YAXVoNhbuEOKCfE/0XhrWs+Fn6M3gYdNF4PA2kRCUv4/XEuT0rUjHW0TIav
OJ7IIQiAhgjmJA==
-----END CERTIFICATE-----
