Certificate:
    Data:
        Version: 1 (0x0)
        Serial Number: 44 (0x2c)
    Signature Algorithm: sha256WithRSAEncryption
        Issuer: C=fr, ST=idf, L=paris, O=vitamui, OU=authorities, CN=ca_intermediate_server
        Validity
            Not Before: May 17 12:25:13 2021 GMT
            Not After : May 16 12:25:13 2024 GMT
        Subject: C=fr, ST=idf, L=paris, O=vitamui, CN=sandbox23-adm.cines.fr
        Subject Public Key Info:
            Public Key Algorithm: rsaEncryption
                Public-Key: (4096 bit)
                Modulus:
                    00:f0:bb:cf:34:26:54:1d:b6:57:ba:c7:ca:d0:04:
                    f9:6c:e8:ae:66:f6:51:3f:ab:7e:b4:56:51:47:b8:
                    fb:3b:36:64:a9:52:f7:49:fe:c3:0c:ca:c0:96:8d:
                    04:39:12:4a:6e:5f:01:49:9a:7b:20:f5:d5:d3:14:
                    d6:df:65:ca:6f:d7:f2:a4:1d:29:11:56:dd:92:a7:
                    3d:24:dd:3d:95:f1:0d:f0:34:38:b1:2e:87:c8:ae:
                    6d:25:0b:2d:eb:82:c3:b0:51:e3:68:9a:1a:9d:fc:
                    4b:6f:57:70:09:54:ad:38:58:71:a4:92:1a:a5:a7:
                    20:43:3b:77:db:f6:04:29:76:19:43:0a:14:f7:18:
                    a8:f1:de:b3:a9:3e:be:de:83:e2:be:1f:8b:61:ee:
                    66:9e:b1:38:04:89:22:d7:47:4f:7f:44:56:6e:1c:
                    7b:5d:37:4e:1a:7b:98:a8:44:dc:60:f1:e4:c5:10:
                    7c:d0:fd:31:a8:22:d6:ba:2c:db:f1:b1:16:50:7d:
                    3d:87:76:d1:49:e5:f4:06:5d:f3:f4:22:45:8a:c4:
                    81:7d:cb:ee:15:df:5e:dc:b8:a1:73:90:ea:4b:ff:
                    68:73:dc:f1:17:0c:4a:b8:cd:21:3b:38:3e:9f:cf:
                    35:5d:a5:56:2a:75:31:d8:f6:ff:c4:3d:3a:c1:13:
                    e8:b5:5a:73:c7:03:a7:82:2d:44:88:e3:16:01:51:
                    12:52:93:19:09:68:cf:18:91:5a:e7:e4:6a:7b:bd:
                    f8:2f:bf:93:05:22:3b:ef:36:cc:ae:f8:af:d9:82:
                    a6:44:37:7f:0f:e5:b8:76:8d:93:55:d0:da:3d:34:
                    91:a3:60:11:2b:5a:77:40:34:a1:06:2d:ed:87:1a:
                    a7:b4:7c:ae:e7:95:58:32:d1:76:05:85:60:88:e7:
                    fb:d1:cc:eb:5b:ad:e6:9b:f8:7c:05:7f:fc:94:fb:
                    cc:b5:71:ba:90:f5:76:22:ef:7e:9c:77:49:a4:46:
                    23:d6:27:d1:81:f8:70:2b:f3:24:13:53:74:5c:d5:
                    8b:2d:38:71:67:f8:5f:67:f1:ad:10:db:67:87:ac:
                    1b:9a:1c:5b:8d:22:05:33:d0:5a:50:ec:c3:7b:ac:
                    da:1c:b6:17:3d:7a:21:5e:e6:5e:06:39:40:de:af:
                    99:a9:36:d7:03:ba:fc:ae:8c:ee:0a:5e:eb:d4:51:
                    80:4b:4a:cd:11:c3:39:02:51:dc:57:35:77:4d:b3:
                    15:c0:8a:5d:4b:bc:4e:a6:6c:64:75:07:5a:a5:68:
                    5b:a6:c3:91:09:2a:a0:37:1a:bf:37:68:58:6d:48:
                    8b:e8:ac:b4:86:fc:46:0a:70:50:64:3a:a7:b7:33:
                    44:90:2b
                Exponent: 65537 (0x10001)
    Signature Algorithm: sha256WithRSAEncryption
         92:a3:d8:65:21:98:67:4f:db:8d:5d:4b:24:76:29:9f:89:87:
         d7:4f:59:ed:1d:b3:74:2a:37:ce:e0:af:11:45:c8:51:14:55:
         d4:e6:f8:ed:0b:c9:a2:a7:41:83:ad:46:a9:cd:6f:bf:bf:58:
         74:8d:20:1b:4a:fa:43:eb:be:a6:45:f3:5e:c2:69:d2:be:02:
         44:a0:0d:24:38:f4:b8:6d:35:bb:3a:b5:62:6f:be:e4:87:b1:
         27:dd:4b:ee:29:e7:b2:de:f2:01:3c:30:37:3e:d3:ae:b2:44:
         60:89:3d:50:b9:37:5e:a2:56:9d:13:02:cf:95:22:c8:fd:13:
         a1:e3:0e:5a:3b:88:f6:b6:1a:58:39:0e:04:e6:a5:fc:8d:3b:
         61:9f:c9:a1:65:79:6c:45:75:d0:e4:20:df:5e:09:be:09:f3:
         9b:95:c4:59:b3:e9:f8:85:14:e7:a6:b5:ca:fc:9e:bb:33:e0:
         be:56:1d:d6:5f:12:ca:50:30:03:f6:b1:d1:f0:59:34:44:3e:
         e7:9c:33:76:b9:43:5e:cf:7d:06:8d:da:fd:b4:cc:44:8d:e4:
         52:d6:ad:6e:c3:6f:9e:37:51:c7:6a:0e:e9:48:44:e2:35:0d:
         34:16:f9:fd:83:90:fb:82:c9:00:6d:ab:02:ea:f8:fb:6c:87:
         0d:f3:73:c9:39:b0:a3:71:4c:68:df:77:d2:a3:36:81:4b:dd:
         c3:23:e0:66:28:b9:94:06:eb:65:b9:a1:4d:8a:c2:f8:a2:f8:
         8b:9c:30:6f:49:ac:e7:26:5f:7c:c9:76:2a:06:c9:07:99:a7:
         f5:4e:95:e7:4f:3d:a5:2d:bf:8a:ae:5a:85:8d:93:eb:57:7d:
         68:8d:b4:de:8d:ba:9a:2b:f1:06:71:37:6a:99:4f:0e:a2:43:
         9e:d6:2f:e5:42:b8:e7:49:e6:59:33:47:b6:65:20:6e:f6:b6:
         fe:c3:b7:59:45:12:8c:1e:c2:70:a2:54:2d:4e:96:e0:9c:6b:
         8a:e2:09:29:f8:35:d2:2a:8e:e3:4c:be:0f:02:08:93:69:03:
         10:a5:be:3a:4b:d7:94:b1:e2:73:aa:a2:6b:7a:84:be:da:10:
         1c:31:1e:73:8c:16:25:b4:47:13:d4:71:31:3a:f6:90:aa:4b:
         10:00:e0:2a:29:19:cd:ec:12:15:54:53:62:3c:c0:63:1b:af:
         17:de:16:fc:cd:a0:ff:03:2c:84:a8:fc:bf:58:02:0d:8b:94:
         ff:8d:0b:eb:4c:b8:3e:a5:8e:a7:4c:9a:9a:1b:de:fb:3a:ef:
         ce:6a:c5:1a:5c:e7:47:52:0e:aa:ff:4f:6f:e5:00:76:c8:1c:
         80:c9:6a:a4:2f:9b:c0:34
-----BEGIN CERTIFICATE-----
MIIFRjCCAy4CASwwDQYJKoZIhvcNAQELBQAwdDELMAkGA1UEBhMCZnIxDDAKBgNV
BAgMA2lkZjEOMAwGA1UEBwwFcGFyaXMxEDAOBgNVBAoMB3ZpdGFtdWkxFDASBgNV
BAsMC2F1dGhvcml0aWVzMR8wHQYDVQQDDBZjYV9pbnRlcm1lZGlhdGVfc2VydmVy
MB4XDTIxMDUxNzEyMjUxM1oXDTI0MDUxNjEyMjUxM1owXjELMAkGA1UEBhMCZnIx
DDAKBgNVBAgMA2lkZjEOMAwGA1UEBwwFcGFyaXMxEDAOBgNVBAoMB3ZpdGFtdWkx
HzAdBgNVBAMMFnNhbmRib3gyMy1hZG0uY2luZXMuZnIwggIiMA0GCSqGSIb3DQEB
AQUAA4ICDwAwggIKAoICAQDwu880JlQdtle6x8rQBPls6K5m9lE/q360VlFHuPs7
NmSpUvdJ/sMMysCWjQQ5EkpuXwFJmnsg9dXTFNbfZcpv1/KkHSkRVt2Spz0k3T2V
8Q3wNDixLofIrm0lCy3rgsOwUeNomhqd/EtvV3AJVK04WHGkkhqlpyBDO3fb9gQp
dhlDChT3GKjx3rOpPr7eg+K+H4th7maesTgEiSLXR09/RFZuHHtdN04ae5ioRNxg
8eTFEHzQ/TGoIta6LNvxsRZQfT2HdtFJ5fQGXfP0IkWKxIF9y+4V317cuKFzkOpL
/2hz3PEXDEq4zSE7OD6fzzVdpVYqdTHY9v/EPTrBE+i1WnPHA6eCLUSI4xYBURJS
kxkJaM8YkVrn5Gp7vfgvv5MFIjvvNsyu+K/ZgqZEN38P5bh2jZNV0No9NJGjYBEr
WndANKEGLe2HGqe0fK7nlVgy0XYFhWCI5/vRzOtbreab+HwFf/yU+8y1cbqQ9XYi
736cd0mkRiPWJ9GB+HAr8yQTU3Rc1YstOHFn+F9n8a0Q22eHrBuaHFuNIgUz0FpQ
7MN7rNocthc9eiFe5l4GOUDer5mpNtcDuvyujO4KXuvUUYBLSs0RwzkCUdxXNXdN
sxXAil1LvE6mbGR1B1qlaFumw5EJKqA3Gr83aFhtSIvorLSG/EYKcFBkOqe3M0SQ
KwIDAQABMA0GCSqGSIb3DQEBCwUAA4ICAQCSo9hlIZhnT9uNXUskdimfiYfXT1nt
HbN0KjfO4K8RRchRFFXU5vjtC8mip0GDrUapzW+/v1h0jSAbSvpD676mRfNewmnS
vgJEoA0kOPS4bTW7OrVib77kh7En3UvuKeey3vIBPDA3PtOuskRgiT1QuTdeolad
EwLPlSLI/ROh4w5aO4j2thpYOQ4E5qX8jTthn8mhZXlsRXXQ5CDfXgm+CfOblcRZ
s+n4hRTnprXK/J67M+C+Vh3WXxLKUDAD9rHR8Fk0RD7nnDN2uUNez30Gjdr9tMxE
jeRS1q1uw2+eN1HHag7pSETiNQ00Fvn9g5D7gskAbasC6vj7bIcN83PJObCjcUxo
33fSozaBS93DI+BmKLmUButluaFNisL4oviLnDBvSaznJl98yXYqBskHmaf1TpXn
Tz2lLb+KrlqFjZPrV31ojbTejbqaK/EGcTdqmU8OokOe1i/lQrjnSeZZM0e2ZSBu
9rb+w7dZRRKMHsJwolQtTpbgnGuK4gkp+DXSKo7jTL4PAgiTaQMQpb46S9eUseJz
qqJreoS+2hAcMR5zjBYltEcT1HExOvaQqksQAOAqKRnN7BIVVFNiPMBjG68X3hb8
zaD/AyyEqPy/WAINi5T/jQvrTLg+pY6nTJqaG977Ou/OasUaXOdHUg6q/09v5QB2
yByAyWqkL5vANA==
-----END CERTIFICATE-----
