Certificate:
    Data:
        Version: 1 (0x0)
        Serial Number: 42 (0x2a)
    Signature Algorithm: sha256WithRSAEncryption
        Issuer: C=fr, ST=idf, L=paris, O=vitamui, OU=authorities, CN=ca_intermediate_server
        Validity
            Not Before: May 17 12:25:04 2021 GMT
            Not After : May 16 12:25:04 2024 GMT
        Subject: C=fr, ST=idf, L=paris, O=vitamui, CN=sandbox23-adm.cines.fr
        Subject Public Key Info:
            Public Key Algorithm: rsaEncryption
                Public-Key: (4096 bit)
                Modulus:
                    00:d8:7b:9c:d4:84:b1:b6:2c:c8:71:9e:7f:55:53:
                    b9:e8:31:c3:5e:ab:fe:4a:cc:7c:ca:02:bc:f2:7f:
                    7d:f4:41:b1:1f:32:8b:ee:3c:0e:cc:35:7f:cd:8e:
                    a0:1c:53:05:97:b9:aa:95:d6:ba:56:9d:ca:03:40:
                    a7:33:8a:b0:6c:59:ce:d0:eb:a5:5f:3b:a2:0a:03:
                    95:9b:62:48:00:91:b8:46:b5:50:3e:cf:cb:45:67:
                    44:eb:64:98:79:ef:2a:c5:ea:3b:21:5f:4d:26:6a:
                    39:af:08:15:ec:e4:f2:54:82:97:aa:07:06:90:06:
                    89:36:e0:f8:46:ef:89:75:54:b3:6e:29:05:01:20:
                    b1:89:6d:9c:14:c4:fa:b0:a4:a2:ee:25:cb:a1:8c:
                    4c:78:b9:e2:54:1d:47:63:0d:83:12:d5:92:ca:b0:
                    b3:c1:5a:9b:9e:bd:ac:3f:ba:0c:06:d8:d5:9f:a2:
                    c3:dd:6a:0e:64:fb:83:3a:a5:4a:13:ea:08:25:30:
                    4a:5c:8b:4a:be:12:78:d7:f0:d7:85:27:6d:62:1e:
                    5f:c8:95:34:8b:ce:80:b2:d1:58:4b:a8:84:6f:3b:
                    54:e2:1b:8a:21:28:27:70:77:d1:9e:cd:85:d4:9e:
                    85:fc:e9:04:70:ba:44:6c:8c:7e:7f:be:bc:54:d9:
                    76:f4:ca:22:a8:f0:44:74:d7:ef:d9:2c:0b:20:53:
                    f8:24:7d:b2:b2:57:80:dc:d2:27:13:c1:ac:4a:59:
                    f9:71:63:db:08:2e:ac:22:69:c0:db:7a:5e:d8:ab:
                    10:ad:82:38:0d:9b:32:9e:9f:85:37:c4:cf:f7:11:
                    49:f5:f8:53:71:47:2b:9f:6c:c1:cb:40:f9:5d:a3:
                    f5:cc:af:02:6a:13:a1:e8:b0:38:e1:18:3b:57:0f:
                    a4:43:d7:c1:fa:1c:d1:fb:85:bf:98:5a:6e:b4:81:
                    d3:2b:bf:b1:b7:5f:36:69:1c:73:97:fa:27:0d:51:
                    db:bc:d7:26:4d:93:e5:ca:cb:5a:a1:06:c3:c7:3a:
                    c5:ff:7d:13:cf:f4:2b:40:1e:c5:33:6b:9a:27:3b:
                    37:fd:5d:2f:9f:ba:2a:2c:29:05:18:35:05:a9:a8:
                    e6:9e:49:2b:95:21:cb:0d:b3:57:0b:9a:0e:86:eb:
                    66:f6:5a:02:1e:2c:99:98:8d:d0:a3:44:90:52:de:
                    77:7e:77:70:a8:03:8c:3e:67:e9:b0:af:5e:e3:9d:
                    95:88:16:c3:ab:fb:ac:ef:f2:d8:d7:71:f1:29:15:
                    77:5a:f0:6a:25:42:05:97:05:f1:65:2f:87:bc:a8:
                    65:10:af:59:1e:34:50:98:11:50:3f:c1:94:54:cd:
                    98:00:5d
                Exponent: 65537 (0x10001)
    Signature Algorithm: sha256WithRSAEncryption
         83:81:8e:f6:ac:b4:b4:b6:0a:cb:c7:ee:2e:53:62:4e:14:ba:
         e9:32:17:b8:b7:d7:8f:16:dc:09:53:f8:2e:fd:66:3d:bf:09:
         60:34:6a:99:3c:d9:bb:0f:bb:a0:1f:11:c7:73:63:43:be:74:
         74:5f:86:5d:66:0d:19:ad:81:14:8d:5d:5c:2e:44:93:7e:13:
         32:38:70:7b:c4:bb:2d:0a:01:42:16:19:37:14:c0:f5:2d:44:
         da:87:cd:94:aa:70:87:fc:40:48:1e:48:e6:bb:a2:94:5c:ec:
         06:d0:a0:8a:e6:87:c0:fa:ec:ed:04:54:de:47:21:35:e9:dc:
         e3:b0:35:75:66:91:11:59:a3:df:bd:a2:63:f2:9e:59:8a:78:
         3e:dd:e7:e9:bd:bb:37:b4:bb:e9:13:30:ed:7a:3a:4f:00:37:
         ad:44:08:2c:73:62:3f:97:bb:6c:e1:ca:49:ac:46:4b:95:47:
         17:35:5a:7f:75:fe:37:fa:a2:fe:7e:54:4b:43:15:2a:c8:44:
         2b:b5:02:7f:f0:40:67:06:24:63:bb:a8:08:8a:70:77:bc:15:
         8c:4d:53:58:b0:c7:39:41:32:2e:c3:4d:df:ac:d3:18:79:09:
         5f:db:35:e8:28:78:fe:9a:39:0e:71:bf:55:6f:ff:9b:30:08:
         f1:aa:a8:ff:9e:e3:f8:5a:40:2d:37:27:54:b9:e7:0e:ae:98:
         8c:4c:80:92:c5:2c:3f:2f:60:59:0b:f7:45:9e:2a:8d:64:fa:
         2d:05:e9:99:e5:15:ec:b2:8e:3b:df:08:b5:eb:f0:96:97:5f:
         3f:08:48:3c:2c:9e:0b:09:3a:81:6a:97:8c:94:6b:0e:37:6a:
         84:e9:76:76:9b:a7:9b:b1:7f:55:b2:25:9d:6a:21:34:d4:61:
         1d:92:3b:a8:be:c8:a5:33:41:b6:fd:c5:4e:61:26:55:b7:7c:
         5f:a0:c6:66:b0:ea:a0:11:70:b8:4a:91:27:cb:7c:92:e2:bb:
         b0:7e:f4:03:66:21:1b:0e:2e:28:1e:fa:e5:81:ee:d9:a6:38:
         73:b4:c1:bf:1b:9b:e3:f6:f2:e5:19:bd:19:59:8d:0b:b1:85:
         40:b6:f6:7a:b1:a6:83:f9:93:f6:2b:8f:a8:34:47:10:23:8e:
         4b:47:31:56:ee:b0:b3:ce:3a:fc:17:5e:b0:02:fd:6e:ce:01:
         5a:5f:67:0d:8f:f6:b0:d8:00:2d:58:4f:8c:c2:e6:1b:47:9c:
         11:c9:eb:0f:d2:56:4c:4f:17:30:81:59:09:c3:85:7d:9e:5d:
         2f:6a:65:35:28:70:03:88:c4:81:aa:ca:88:7d:97:d2:bd:6b:
         3b:33:5f:96:d2:75:a6:7a
-----BEGIN CERTIFICATE-----
MIIFRjCCAy4CASowDQYJKoZIhvcNAQELBQAwdDELMAkGA1UEBhMCZnIxDDAKBgNV
BAgMA2lkZjEOMAwGA1UEBwwFcGFyaXMxEDAOBgNVBAoMB3ZpdGFtdWkxFDASBgNV
BAsMC2F1dGhvcml0aWVzMR8wHQYDVQQDDBZjYV9pbnRlcm1lZGlhdGVfc2VydmVy
MB4XDTIxMDUxNzEyMjUwNFoXDTI0MDUxNjEyMjUwNFowXjELMAkGA1UEBhMCZnIx
DDAKBgNVBAgMA2lkZjEOMAwGA1UEBwwFcGFyaXMxEDAOBgNVBAoMB3ZpdGFtdWkx
HzAdBgNVBAMMFnNhbmRib3gyMy1hZG0uY2luZXMuZnIwggIiMA0GCSqGSIb3DQEB
AQUAA4ICDwAwggIKAoICAQDYe5zUhLG2LMhxnn9VU7noMcNeq/5KzHzKArzyf330
QbEfMovuPA7MNX/NjqAcUwWXuaqV1rpWncoDQKczirBsWc7Q66VfO6IKA5WbYkgA
kbhGtVA+z8tFZ0TrZJh57yrF6jshX00majmvCBXs5PJUgpeqBwaQBok24PhG74l1
VLNuKQUBILGJbZwUxPqwpKLuJcuhjEx4ueJUHUdjDYMS1ZLKsLPBWpuevaw/ugwG
2NWfosPdag5k+4M6pUoT6gglMEpci0q+EnjX8NeFJ21iHl/IlTSLzoCy0VhLqIRv
O1TiG4ohKCdwd9GezYXUnoX86QRwukRsjH5/vrxU2Xb0yiKo8ER01+/ZLAsgU/gk
fbKyV4Dc0icTwaxKWflxY9sILqwiacDbel7YqxCtgjgNmzKen4U3xM/3EUn1+FNx
RyufbMHLQPldo/XMrwJqE6HosDjhGDtXD6RD18H6HNH7hb+YWm60gdMrv7G3XzZp
HHOX+icNUdu81yZNk+XKy1qhBsPHOsX/fRPP9CtAHsUza5onOzf9XS+fuiosKQUY
NQWpqOaeSSuVIcsNs1cLmg6G62b2WgIeLJmYjdCjRJBS3nd+d3CoA4w+Z+mwr17j
nZWIFsOr+6zv8tjXcfEpFXda8GolQgWXBfFlL4e8qGUQr1keNFCYEVA/wZRUzZgA
XQIDAQABMA0GCSqGSIb3DQEBCwUAA4ICAQCDgY72rLS0tgrLx+4uU2JOFLrpMhe4
t9ePFtwJU/gu/WY9vwlgNGqZPNm7D7ugHxHHc2NDvnR0X4ZdZg0ZrYEUjV1cLkST
fhMyOHB7xLstCgFCFhk3FMD1LUTah82UqnCH/EBIHkjmu6KUXOwG0KCK5ofA+uzt
BFTeRyE16dzjsDV1ZpERWaPfvaJj8p5Zing+3efpvbs3tLvpEzDtejpPADetRAgs
c2I/l7ts4cpJrEZLlUcXNVp/df43+qL+flRLQxUqyEQrtQJ/8EBnBiRju6gIinB3
vBWMTVNYsMc5QTIuw03frNMYeQlf2zXoKHj+mjkOcb9Vb/+bMAjxqqj/nuP4WkAt
NydUuecOrpiMTICSxSw/L2BZC/dFniqNZPotBemZ5RXsso473wi16/CWl18/CEg8
LJ4LCTqBapeMlGsON2qE6XZ2m6ebsX9VsiWdaiE01GEdkjuovsilM0G2/cVOYSZV
t3xfoMZmsOqgEXC4SpEny3yS4ruwfvQDZiEbDi4oHvrlge7ZpjhztMG/G5vj9vLl
Gb0ZWY0LsYVAtvZ6saaD+ZP2K4+oNEcQI45LRzFW7rCzzjr8F16wAv1uzgFaX2cN
j/aw2AAtWE+MwuYbR5wRyesP0lZMTxcwgVkJw4V9nl0vamU1KHADiMSBqsqIfZfS
vWs7M1+W0nWmeg==
-----END CERTIFICATE-----
