Certificate:
    Data:
        Version: 1 (0x0)
        Serial Number: 45 (0x2d)
    Signature Algorithm: sha256WithRSAEncryption
        Issuer: C=fr, ST=idf, L=paris, O=vitamui, OU=authorities, CN=ca_intermediate_server
        Validity
            Not Before: May 17 12:25:23 2021 GMT
            Not After : May 16 12:25:23 2024 GMT
        Subject: C=fr, ST=idf, L=paris, O=vitamui, CN=sandbox23-adm.cines.fr
        Subject Public Key Info:
            Public Key Algorithm: rsaEncryption
                Public-Key: (4096 bit)
                Modulus:
                    00:b6:22:95:80:bd:0d:ae:c2:56:ae:b4:2b:66:96:
                    fb:89:a5:f1:fa:57:aa:8f:e6:43:b7:6a:53:94:91:
                    ad:02:dd:b3:04:60:cf:4b:80:70:bb:5a:bb:7f:f0:
                    c6:82:23:e3:2a:ae:d0:4e:07:8e:72:49:7a:6c:a3:
                    a6:7c:f9:b8:6a:02:30:a4:c6:76:d4:f9:66:22:88:
                    9c:2b:ef:91:3f:1c:a9:cd:48:78:db:5e:5a:a9:70:
                    14:d5:8c:33:5a:cd:b2:fd:b1:ce:dc:88:81:9b:92:
                    4f:d8:f1:63:e5:ad:e4:ca:40:04:8a:37:08:a5:72:
                    c1:ad:7e:35:fc:f5:62:1b:72:a8:c3:68:1f:9b:b4:
                    77:31:3b:8e:cf:03:81:92:b5:2d:73:4d:0d:68:8a:
                    b4:4b:68:b7:db:95:5b:5d:5e:69:d0:25:15:12:44:
                    aa:a9:e1:b3:c3:72:2c:91:2f:3b:55:dd:9a:ae:e9:
                    6c:47:c7:e6:8f:13:99:0e:93:c4:c4:f8:f9:85:6c:
                    a5:a4:d3:b3:12:ac:b1:63:0c:06:4f:dd:bf:e0:55:
                    57:fd:78:42:14:09:22:7a:16:1f:5a:75:bc:c4:4c:
                    ca:37:f9:07:4b:4c:6c:85:57:32:c9:2b:16:26:cf:
                    8e:00:ae:3a:60:4c:78:d2:46:9a:1a:eb:d3:06:fc:
                    27:c1:24:12:c8:ef:66:04:da:eb:d8:d2:46:0f:4f:
                    07:49:9d:3b:fa:16:fa:38:3c:a8:65:82:d5:56:ea:
                    b0:07:3f:38:8e:2b:28:f5:45:b8:f0:0f:ad:d3:e6:
                    52:b4:37:23:52:02:89:8d:c4:64:b8:42:93:60:77:
                    36:99:0b:7a:df:40:de:80:97:d4:7a:24:be:7b:63:
                    4b:2c:b8:59:97:2b:49:95:50:5b:81:f5:5e:e0:6e:
                    97:04:b4:08:89:7c:38:be:77:fa:ad:c6:17:4f:15:
                    4a:c5:06:f6:e1:44:be:65:56:f4:fe:b6:bd:41:fe:
                    1f:51:e4:78:64:e0:6e:be:06:cc:51:1d:5e:a3:57:
                    65:42:6d:cb:1e:b1:86:a3:9c:1f:9e:89:c0:b5:10:
                    4b:20:dd:dc:95:c3:43:ec:b8:a7:a0:50:8b:2b:b8:
                    f0:66:8b:93:77:37:16:d7:39:c6:a2:9d:66:f7:1e:
                    96:a7:a7:fa:3d:e6:3b:89:3d:b4:0b:30:48:6f:8a:
                    28:ee:a5:d7:5b:33:ba:3c:d9:86:91:94:e1:6e:68:
                    3a:50:2d:78:2a:2f:b4:79:66:14:94:f8:1b:18:06:
                    da:ca:a8:99:bd:bf:27:6e:02:a6:d4:3c:09:b7:74:
                    cc:92:75:46:d9:cc:ea:97:a9:a6:9c:91:ea:25:87:
                    ed:3f:65
                Exponent: 65537 (0x10001)
    Signature Algorithm: sha256WithRSAEncryption
         85:b3:4c:ee:d8:45:d5:a1:e9:a7:0b:49:36:e1:14:c4:81:fa:
         29:13:22:08:34:40:e4:95:42:7a:13:27:d7:85:0d:2e:ed:a0:
         0a:0e:82:c0:f0:76:83:c8:ec:a1:aa:80:8b:38:ce:0e:ee:40:
         a7:d9:60:41:f7:e6:43:d8:43:ca:bc:fe:e2:0c:fc:a4:18:4e:
         ff:f6:62:a4:ff:80:70:f6:ec:f2:cf:cf:91:db:98:7c:1f:75:
         1d:b5:6a:15:fc:e9:3f:27:91:cf:4c:b9:a7:62:da:47:2a:05:
         4b:85:e3:11:a8:64:ca:95:bb:51:dd:fe:34:c8:42:27:d9:e6:
         df:5c:04:b1:44:20:92:dd:2f:5f:19:0c:3b:8b:1e:6b:8e:0e:
         8a:07:bb:b7:4f:64:cc:30:81:4a:ab:44:89:d6:f1:1c:23:ae:
         5f:1f:70:bd:47:76:49:04:a6:31:77:28:30:60:1c:98:08:72:
         e8:11:ca:bd:33:b8:42:20:e3:58:47:03:1c:4a:8f:8e:8c:bc:
         99:7f:07:db:44:66:ac:4b:29:b0:5b:ed:11:54:af:11:e7:8e:
         0d:e5:93:d9:4f:b0:c7:aa:48:c5:4c:01:01:b3:04:54:2c:5c:
         bc:f3:e1:2f:71:dd:b4:e9:18:ca:7b:2f:03:22:d6:f6:a2:bd:
         eb:25:e6:d1:10:23:82:94:2b:70:60:62:95:6d:7f:77:44:c7:
         f7:b0:6c:0b:00:38:fc:23:16:14:86:1e:79:dc:34:1a:d2:6f:
         8b:91:51:f2:f5:da:46:6a:49:ba:a4:5c:75:d5:67:9d:64:fc:
         de:64:7a:65:52:5b:a3:f9:b1:17:21:45:bb:c9:ef:06:98:28:
         f9:2d:8b:52:df:23:08:f8:89:8b:c3:d7:b4:22:e2:b9:14:e6:
         33:64:5c:10:6a:a9:9b:db:8c:c3:9e:dc:77:51:34:50:f4:7b:
         82:89:90:ab:66:fd:fe:42:47:4a:a2:c0:d8:70:83:91:1e:18:
         6b:7b:22:fc:db:b1:5a:75:83:18:a0:68:38:0f:a8:5a:0b:10:
         3b:bb:1d:21:fc:43:55:45:86:08:d1:2f:47:d5:e9:04:6e:b5:
         92:69:e1:30:93:a6:af:2b:20:df:f5:2a:1b:3a:cb:50:da:63:
         0f:de:76:03:ee:61:99:63:62:93:0a:73:1c:aa:68:ce:ef:b2:
         55:5c:04:da:b8:65:e1:4d:ba:56:89:64:f1:c9:e8:b6:84:ce:
         86:8f:9c:a0:7b:b4:b9:40:ee:fd:18:15:71:4f:f8:c1:ee:d6:
         4a:f8:79:8e:44:89:91:37:45:5b:b3:fc:01:81:ba:54:26:48:
         df:2e:5b:2f:53:1f:73:a6
-----BEGIN CERTIFICATE-----
MIIFRjCCAy4CAS0wDQYJKoZIhvcNAQELBQAwdDELMAkGA1UEBhMCZnIxDDAKBgNV
BAgMA2lkZjEOMAwGA1UEBwwFcGFyaXMxEDAOBgNVBAoMB3ZpdGFtdWkxFDASBgNV
BAsMC2F1dGhvcml0aWVzMR8wHQYDVQQDDBZjYV9pbnRlcm1lZGlhdGVfc2VydmVy
MB4XDTIxMDUxNzEyMjUyM1oXDTI0MDUxNjEyMjUyM1owXjELMAkGA1UEBhMCZnIx
DDAKBgNVBAgMA2lkZjEOMAwGA1UEBwwFcGFyaXMxEDAOBgNVBAoMB3ZpdGFtdWkx
HzAdBgNVBAMMFnNhbmRib3gyMy1hZG0uY2luZXMuZnIwggIiMA0GCSqGSIb3DQEB
AQUAA4ICDwAwggIKAoICAQC2IpWAvQ2uwlautCtmlvuJpfH6V6qP5kO3alOUka0C
3bMEYM9LgHC7Wrt/8MaCI+MqrtBOB45ySXpso6Z8+bhqAjCkxnbU+WYiiJwr75E/
HKnNSHjbXlqpcBTVjDNazbL9sc7ciIGbkk/Y8WPlreTKQASKNwilcsGtfjX89WIb
cqjDaB+btHcxO47PA4GStS1zTQ1oirRLaLfblVtdXmnQJRUSRKqp4bPDciyRLztV
3Zqu6WxHx+aPE5kOk8TE+PmFbKWk07MSrLFjDAZP3b/gVVf9eEIUCSJ6Fh9adbzE
TMo3+QdLTGyFVzLJKxYmz44ArjpgTHjSRpoa69MG/CfBJBLI72YE2uvY0kYPTwdJ
nTv6Fvo4PKhlgtVW6rAHPziOKyj1RbjwD63T5lK0NyNSAomNxGS4QpNgdzaZC3rf
QN6Al9R6JL57Y0ssuFmXK0mVUFuB9V7gbpcEtAiJfDi+d/qtxhdPFUrFBvbhRL5l
VvT+tr1B/h9R5Hhk4G6+BsxRHV6jV2VCbcsesYajnB+eicC1EEsg3dyVw0PsuKeg
UIsruPBmi5N3NxbXOcainWb3Hpanp/o95juJPbQLMEhviijupddbM7o82YaRlOFu
aDpQLXgqL7R5ZhSU+BsYBtrKqJm9vyduAqbUPAm3dMySdUbZzOqXqaackeolh+0/
ZQIDAQABMA0GCSqGSIb3DQEBCwUAA4ICAQCFs0zu2EXVoemnC0k24RTEgfopEyII
NEDklUJ6EyfXhQ0u7aAKDoLA8HaDyOyhqoCLOM4O7kCn2WBB9+ZD2EPKvP7iDPyk
GE7/9mKk/4Bw9uzyz8+R25h8H3UdtWoV/Ok/J5HPTLmnYtpHKgVLheMRqGTKlbtR
3f40yEIn2ebfXASxRCCS3S9fGQw7ix5rjg6KB7u3T2TMMIFKq0SJ1vEcI65fH3C9
R3ZJBKYxdygwYByYCHLoEcq9M7hCIONYRwMcSo+OjLyZfwfbRGasSymwW+0RVK8R
544N5ZPZT7DHqkjFTAEBswRULFy88+Evcd206RjKey8DItb2or3rJebRECOClCtw
YGKVbX93RMf3sGwLADj8IxYUhh553DQa0m+LkVHy9dpGakm6pFx11WedZPzeZHpl
Uluj+bEXIUW7ye8GmCj5LYtS3yMI+ImLw9e0IuK5FOYzZFwQaqmb24zDntx3UTRQ
9HuCiZCrZv3+QkdKosDYcIORHhhreyL827FadYMYoGg4D6haCxA7ux0h/ENVRYYI
0S9H1ekEbrWSaeEwk6avKyDf9SobOstQ2mMP3nYD7mGZY2KTCnMcqmjO77JVXATa
uGXhTbpWiWTxyei2hM6Gj5yge7S5QO79GBVxT/jB7tZK+HmORImRN0Vbs/wBgbpU
JkjfLlsvUx9zpg==
-----END CERTIFICATE-----
